ccopy_reg
_reconstructor
p0
(cFWCore.ParameterSet.Config
Process
p1
c__builtin__
object
p2
Ntp3
Rp4
(dp5
V_Process__name
p6
VAnalysisMC
p7
sV_Process__filters
p8
(dp9
sV_Process__producers
p10
(dp11
sV_Process__switchproducers
p12
(dp13
sV_Process__source
p14
g0
(cFWCore.ParameterSet.Modules
Source
p15
g2
Ntp16
Rp17
(dp18
V_TypedParameterizable__type
p19
VPoolSource
p20
sV_Parameterizable__parameterNames
p21
(lp22
VfileNames
p23
asV_isFrozen
p24
I00
sV_Parameterizable__validator
p25
Nsg23
g0
(cFWCore.ParameterSet.Types
vstring
p26
c__builtin__
list
p27
(lp28
tp29
Rp30
(dp31
g24
I00
sV_ParameterTypeBase__isTracked
p32
I00
sV_isModified
p33
I00
sV_nPerLine
p34
I1
sbsg33
I00
sV_filename
p35
V/cvmfs/cms.cern.ch/el9_amd64_gcc12/cms/cmssw/CMSSW_14_0_12/src/FWCore/ParameterSet/python/Modules.py
p36
sV_lineNumber
p37
I195
sbsV_Process__looper
p38
NsV_Process__subProcesses
p39
(lp40
sV_Process__schedule
p41
NsV_Process__analyzers
p42
(dp43
VAnalysis
p44
g0
(cFWCore.ParameterSet.Modules
EDAnalyzer
p45
g2
Ntp46
Rp47
(dp48
g19
g44
sg21
(lp49
Vmuons
p50
aVtriggerResults
p51
aVvertices
p52
aVhltPath
p53
asg24
I00
sg25
Nsg50
g0
(cFWCore.ParameterSet.Types
InputTag
p54
g2
Ntp55
Rp56
(dp57
g24
I00
sg32
I01
sg33
I00
sV_InputTag__moduleLabel
p58
g50
sV_InputTag__productInstance
p59
V
p60
sV_InputTag__processName
p61
g60
sbsg33
I00
sg51
g0
(g54
g2
Ntp62
Rp63
(dp64
g24
I00
sg32
I01
sg33
I00
sg58
VTriggerResults
p65
sg59
g60
sg61
VHLT
p66
sbsg52
g0
(g54
g2
Ntp67
Rp68
(dp69
g24
I00
sg32
I01
sg33
I00
sg58
VofflinePrimaryVertices
p70
sg59
g60
sg61
g60
sbsg53
g0
(cFWCore.ParameterSet.Types
string
p71
g2
Ntp72
Rp73
(dp74
g24
I00
sg32
I01
sg33
I00
sV_value
p75
VHLT_IsoMu24_v
p76
sbsg35
V/eos/home-w/wkwon/CMSSW_14_0_12/src/work/mc/conf.py
p77
sg37
I26
sV_Labelable__label
p78
g44
sbssV_Process__outputmodules
p79
(dp80
sV_Process__paths
p81
g0
(cFWCore.ParameterSet.DictTypes
SortedKeysDict
p82
c__builtin__
dict
p83
(dp84
Vp
p85
g0
(cFWCore.ParameterSet.SequenceTypes
Path
p86
g2
Ntp87
Rp88
(dp89
g24
I00
sV_seq
p90
g0
(cFWCore.ParameterSet.SequenceTypes
_SequenceCollection
p91
g2
Ntp92
Rp93
(dp94
V_collection
p95
(lp96
g47
asbsg33
I00
sV_tasks
p97
g0
(cFWCore.ParameterSet.OrderedSet
OrderedSet
p98
g2
Ntp99
Rp100
(dp101
Vend
p102
(lp103
Nag103
ag103
asVmap
p104
(dp105
sbsg78
g85
sbstp106
Rp107
(dp108
Vlist
p109
(lp110
g85
asbsV_Process__endpaths
p111
g0
(g82
g83
(dp112
tp113
Rp114
(dp115
g109
(lp116
sbsV_Process__finalpaths
p117
g0
(g82
g83
(dp118
tp119
Rp120
(dp121
g109
(lp122
sbsV_Process__sequences
p123
(dp124
sV_Process__tasks
p125
(dp126
sV_Process__conditionaltasks
p127
(dp128
sV_Process__services
p129
(dp130
VMessageLogger
p131
g0
(cFWCore.ParameterSet.Modules
Service
p132
g2
Ntp133
Rp134
(dp135
g19
g131
sg21
(lp136
VsuppressWarning
p137
aVsuppressFwkInfo
p138
aVsuppressInfo
p139
aVsuppressDebug
p140
aVdebugModules
p141
aVcout
p142
aVdefault
p143
aVcerr
p144
aVfiles
p145
asg24
I00
sg25
g0
(cFWCore.ParameterSet.Types
_OptionalParameter
p146
g2
Ntp147
Rp148
(dp149
g24
I00
sg32
I00
sg33
I00
sV_ProxyParameter__type
p150
g0
(cFWCore.ParameterSet.Types
_PSetTemplate
p151
g2
Ntp152
Rp153
(dp154
V_pset
p155
g0
(cFWCore.ParameterSet.Types
PSet
p156
g2
Ntp157
Rp158
(dp159
g24
I00
sg32
I01
sg33
I00
sg21
(lp160
VreportEvery
p161
aVlimit
p162
aVtimespan
p163
asg25
Nsg161
g0
(cFWCore.ParameterSet.Types
int32
p164
g2
Ntp165
Rp166
(dp167
g24
I00
sg32
I00
sg33
I00
sg75
I1
sbsg162
g0
(g146
g2
Ntp168
Rp169
(dp170
g24
I00
sg32
I00
sg33
I00
sg150
g164
sV_ProxyParameter__value
p171
Nsbsg163
g0
(g146
g2
Ntp172
Rp173
(dp174
g24
I00
sg32
I00
sg33
I00
sg150
g164
sg171
NsbsbsV_PSetTemplate__value
p175
Nsbsg171
Nsbsg137
g0
(g26
g27
(lp176
tp177
Rp178
(dp179
g24
I00
sg32
I00
sg33
I00
sg34
I1
sbsg33
I00
sg138
g0
(g26
g27
(lp180
tp181
Rp182
(dp183
g24
I00
sg32
I00
sg33
I00
sg34
I1
sbsg139
g0
(g26
g27
(lp184
tp185
Rp186
(dp187
g24
I00
sg32
I00
sg33
I00
sg34
I1
sbsg140
g0
(g26
g27
(lp188
tp189
Rp190
(dp191
g24
I00
sg32
I00
sg33
I00
sg34
I1
sbsg141
g0
(g26
g27
(lp192
tp193
Rp194
(dp195
g24
I00
sg32
I00
sg33
I00
sg34
I1
sbsg142
g0
(g156
g2
Ntp196
Rp197
(dp198
g24
I00
sg32
I00
sg33
I00
sg21
(lp199
VnoLineBreaks
p200
aVnoTimeStamps
p201
aVlineLength
p202
aVthreshold
p203
aVstatisticsThreshold
p204
aVenableStatistics
p205
aVresetStatistics
p206
aVenable
p207
asg25
g148
sg200
g0
(g146
g2
Ntp208
Rp209
(dp210
g24
I00
sg32
I00
sg33
I00
sg150
cFWCore.ParameterSet.Types
bool
p211
sg171
Nsbsg201
g0
(g146
g2
Ntp212
Rp213
(dp214
g24
I00
sg32
I00
sg33
I00
sg150
g211
sg171
Nsbsg202
g0
(g146
g2
Ntp215
Rp216
(dp217
g24
I00
sg32
I00
sg33
I00
sg150
g164
sg171
Nsbsg203
g0
(g146
g2
Ntp218
Rp219
(dp220
g24
I00
sg32
I00
sg33
I00
sg150
g71
sg171
Nsbsg204
g0
(g146
g2
Ntp221
Rp222
(dp223
g24
I00
sg32
I00
sg33
I00
sg150
g71
sg171
Nsbsg205
g0
(g211
g2
Ntp224
Rp225
(dp226
g24
I00
sg32
I00
sg33
I00
sg75
I00
sbsg206
g0
(g211
g2
Ntp227
Rp228
(dp229
g24
I00
sg32
I00
sg33
I00
sg75
I00
sbsg207
g0
(g211
g2
Ntp230
Rp231
(dp232
g24
I00
sg32
I00
sg33
I00
sg75
I00
sbsbsg143
g0
(g156
g2
Ntp233
Rp234
(dp235
g24
I00
sg32
I00
sg33
I00
sg21
(lp236
g161
ag162
ag163
ag200
ag201
ag202
ag203
ag204
asg25
g148
sg161
g0
(g164
g2
Ntp237
Rp238
(dp239
g24
I00
sg32
I00
sg33
I00
sg75
I1
sbsg162
g0
(g146
g2
Ntp240
Rp241
(dp242
g24
I00
sg32
I00
sg33
I00
sg150
g164
sg171
Nsbsg163
g0
(g146
g2
Ntp243
Rp244
(dp245
g24
I00
sg32
I00
sg33
I00
sg150
g164
sg171
Nsbsg200
g0
(g211
g2
Ntp246
Rp247
(dp248
g24
I00
sg32
I00
sg33
I00
sg75
I00
sbsg201
g0
(g211
g2
Ntp249
Rp250
(dp251
g24
I00
sg32
I00
sg33
I00
sg75
I00
sbsg202
g0
(g164
g2
Ntp252
Rp253
(dp254
g24
I00
sg32
I00
sg33
I00
sg75
I80
sbsg203
g0
(g71
g2
Ntp255
Rp256
(dp257
g24
I00
sg32
I00
sg33
I00
sg75
VINFO
p258
sbsg204
g0
(g71
g2
Ntp259
Rp260
(dp261
g24
I00
sg32
I00
sg33
I00
sg75
g258
sbsbsg144
g0
(g156
g2
Ntp262
Rp263
(dp264
g24
I00
sg32
I00
sg33
I00
sg21
(lp265
g200
ag201
ag202
ag203
ag204
ag207
ag205
ag206
ag258
aVFwkReport
p266
ag143
aVRoot_NoDictionary
p267
aVFwkSummary
p268
asg25
g148
sg200
g0
(g146
g2
Ntp269
Rp270
(dp271
g24
I00
sg32
I00
sg33
I00
sg150
g211
sg171
Nsbsg201
g0
(g211
g2
Ntp272
Rp273
(dp274
g24
I00
sg32
I00
sg33
I00
sg75
I00
sbsg202
g0
(g146
g2
Ntp275
Rp276
(dp277
g24
I00
sg32
I00
sg33
I00
sg150
g164
sg171
Nsbsg203
g0
(g71
g2
Ntp278
Rp279
(dp280
g24
I00
sg32
I00
sg33
I00
sg75
g258
sbsg204
g0
(g71
g2
Ntp281
Rp282
(dp283
g24
I00
sg32
I00
sg33
I00
sg75
VWARNING
p284
sbsg207
g0
(g211
g2
Ntp285
Rp286
(dp287
g24
I00
sg32
I00
sg33
I00
sg75
I01
sbsg205
g0
(g211
g2
Ntp288
Rp289
(dp290
g24
I00
sg32
I00
sg33
I00
sg75
I00
sbsg206
g0
(g211
g2
Ntp291
Rp292
(dp293
g24
I00
sg32
I00
sg33
I00
sg75
I00
sbsg258
g0
(g156
g2
Ntp294
Rp295
(dp296
g24
I00
sg32
I00
sg33
I00
sg21
(lp297
g162
asg25
Nsg162
g0
(g164
g2
Ntp298
Rp299
(dp300
g24
I00
sg32
I00
sg33
I00
sg75
I0
sbsbsg266
g0
(g156
g2
Ntp301
Rp302
(dp303
g24
I00
sg32
I00
sg33
I01
sg21
(lp304
g161
ag162
asg25
Nsg161
g0
(g164
g2
Ntp305
Rp306
(dp307
g24
I00
sg32
I00
sg33
I01
sg75
I10000
sbsg162
g0
(g164
g2
Ntp308
Rp309
(dp310
g24
I00
sg32
I00
sg33
I00
sg75
I10000000
sbsbsg143
g0
(g156
g2
Ntp311
Rp312
(dp313
g24
I00
sg32
I00
sg33
I00
sg21
(lp314
g162
asg25
Nsg162
g0
(g164
g2
Ntp315
Rp316
(dp317
g24
I00
sg32
I00
sg33
I00
sg75
I10000000
sbsbsg267
g0
(g156
g2
Ntp318
Rp319
(dp320
g24
I00
sg32
I00
sg33
I00
sg21
(lp321
g162
asg25
Nsg162
g0
(g164
g2
Ntp322
Rp323
(dp324
g24
I00
sg32
I00
sg33
I00
sg75
I0
sbsbsg268
g0
(g156
g2
Ntp325
Rp326
(dp327
g24
I00
sg32
I00
sg33
I00
sg21
(lp328
g161
ag162
asg25
Nsg161
g0
(g164
g2
Ntp329
Rp330
(dp331
g24
I00
sg32
I00
sg33
I00
sg75
I1
sbsg162
g0
(g164
g2
Ntp332
Rp333
(dp334
g24
I00
sg32
I00
sg33
I00
sg75
I10000000
sbsbsbsg145
g0
(g156
g2
Ntp335
Rp336
(dp337
g24
I00
sg32
I00
sg33
I00
sg21
(lp338
sg25
g0
(g146
g2
Ntp339
Rp340
(dp341
g24
I00
sg32
I00
sg33
I00
sg150
g0
(g151
g2
Ntp342
Rp343
(dp344
g155
g0
(g156
g2
Ntp345
Rp346
(dp347
g24
I00
sg32
I01
sg33
I00
sg21
(lp348
g200
ag201
ag202
ag203
ag204
ag205
ag206
aVfilename
p349
aVextension
p350
aVoutput
p351
asg25
g148
sg200
g0
(g146
g2
Ntp352
Rp353
(dp354
g24
I00
sg32
I00
sg33
I00
sg150
g211
sg171
Nsbsg201
g0
(g146
g2
Ntp355
Rp356
(dp357
g24
I00
sg32
I00
sg33
I00
sg150
g211
sg171
Nsbsg202
g0
(g146
g2
Ntp358
Rp359
(dp360
g24
I00
sg32
I00
sg33
I00
sg150
g164
sg171
Nsbsg203
g0
(g146
g2
Ntp361
Rp362
(dp363
g24
I00
sg32
I00
sg33
I00
sg150
g71
sg171
Nsbsg204
g0
(g146
g2
Ntp364
Rp365
(dp366
g24
I00
sg32
I00
sg33
I00
sg150
g71
sg171
Nsbsg205
g0
(g211
g2
Ntp367
Rp368
(dp369
g24
I00
sg32
I00
sg33
I00
sg75
I00
sbsg206
g0
(g211
g2
Ntp370
Rp371
(dp372
g24
I00
sg32
I00
sg33
I00
sg75
I00
sbsg349
g0
(g146
g2
Ntp373
Rp374
(dp375
g24
I00
sg32
I00
sg33
I00
sg150
g71
sg171
Nsbsg350
g0
(g146
g2
Ntp376
Rp377
(dp378
g24
I00
sg32
I00
sg33
I00
sg150
g71
sg171
Nsbsg351
g0
(g146
g2
Ntp379
Rp380
(dp381
g24
I00
sg32
I00
sg33
I00
sg150
g71
sg171
Nsbsbsg175
Nsbsg171
Nsbsbsg35
g36
sg37
I13
sV_inProcess
p382
I00
sbsVTFileService
p383
g0
(g132
g2
Ntp384
Rp385
(dp386
g19
g383
sg21
(lp387
VfileName
p388
asg24
I00
sg25
Nsg388
g0
(g71
g2
Ntp389
Rp390
(dp391
g24
I00
sg32
I01
sg33
I00
sg75
Vmc.root
p392
sbsg33
I00
sg35
g36
sg37
I13
sg382
I01
sbssV_Process__essources
p393
(dp394
sV_Process__esproducers
p395
(dp396
sV_Process__esprefers
p397
(dp398
sV_Process__aliases
p399
(dp400
sV_Process__psets
p401
(dp402
VmaxLuminosityBlocks
p403
g0
(g156
g2
Ntp404
Rp405
(dp406
g24
I00
sg32
I00
sg33
I00
sg21
(lp407
Vinput
p408
asg25
Nsg408
g0
(g164
g2
Ntp409
Rp410
(dp411
g24
I00
sg32
I00
sg33
I00
sg75
I-1
sbsg78
g403
sbsVmaxEvents
p412
g0
(g156
g2
Ntp413
Rp414
(dp415
g24
I00
sg32
I00
sg33
I01
sg21
(lp416
g408
ag351
asg25
Nsg408
g0
(g146
g2
Ntp417
Rp418
(dp419
g24
I00
sg32
I00
sg33
I00
sg150
g164
sg171
g0
(g164
g2
Ntp420
Rp421
(dp422
g24
I00
sg32
I00
sg33
I00
sg75
I-1
sbsbsg351
g0
(g146
g2
Ntp423
Rp424
(dp425
g24
I00
sg32
I00
sg33
I00
sg150
g0
(cFWCore.ParameterSet.Types
_AllowedParameterTypes
p426
g2
Ntp427
Rp428
(dp429
V_AllowedParameterTypes__types
p430
(g164
g156
tp431
sV_default
p432
NsV__name__
p433
Vallowed(cms.int32,cms.PSet)
p434
sbsg171
Nsbsg78
g412
sbsVoptions
p435
g0
(g156
g2
Ntp436
Rp437
(dp438
g24
I00
sg32
I00
sg33
I01
sg21
(lp439
VnumberOfThreads
p440
aVnumberOfStreams
p441
aVnumberOfConcurrentRuns
p442
aVnumberOfConcurrentLuminosityBlocks
p443
aVeventSetup
p444
aVaccelerators
p445
aVwantSummary
p446
aVfileMode
p447
aVforceEventSetupCacheClearOnNewRun
p448
aVthrowIfIllegalParameter
p449
aVprintDependencies
p450
aVdeleteNonConsumedUnscheduledModules
p451
aVsizeOfStackForThreadsInKB
p452
aVRethrow
p453
aVTryToContinue
p454
aVIgnoreCompletely
p455
aVmodulesToCallForTryToContinue
p456
aVcanDeleteEarly
p457
aVholdsReferencesToDeleteEarly
p458
aVmodulesToIgnoreForDeleteEarly
p459
aVdumpOptions
p460
aVallowUnscheduled
p461
aVemptyRunLumiMode
p462
aVmakeTriggerResults
p463
asg25
Nsg440
g0
(cFWCore.ParameterSet.Types
uint32
p464
g2
Ntp465
Rp466
(dp467
g24
I00
sg32
I00
sg33
I00
sg75
I1
sbsg441
g0
(g464
g2
Ntp468
Rp469
(dp470
g24
I00
sg32
I00
sg33
I00
sg75
I0
sbsg442
g0
(g464
g2
Ntp471
Rp472
(dp473
g24
I00
sg32
I00
sg33
I00
sg75
I1
sbsg443
g0
(g464
g2
Ntp474
Rp475
(dp476
g24
I00
sg32
I00
sg33
I00
sg75
I0
sbsg444
g0
(g156
g2
Ntp477
Rp478
(dp479
g24
I00
sg32
I00
sg33
I00
sg21
(lp480
VnumberOfConcurrentIOVs
p481
aVforceNumberOfConcurrentIOVs
p482
asg25
Nsg481
g0
(g464
g2
Ntp483
Rp484
(dp485
g24
I00
sg32
I00
sg33
I00
sg75
I0
sbsg482
g0
(g156
g2
Ntp486
Rp487
(dp488
g24
I00
sg32
I00
sg33
I00
sg21
(lp489
sg25
g0
(cFWCore.ParameterSet.Types
_RequiredParameter
p490
g2
Ntp491
Rp492
(dp493
g24
I00
sg32
I00
sg33
I00
sg150
g464
sg171
Nsbsbsbsg445
g0
(g26
g27
(lp494
V*
p495
atp496
Rp497
(dp498
g24
I00
sg32
I00
sg33
I00
sg34
I1
sbsg446
g0
(g211
g2
Ntp499
Rp500
(dp501
g24
I00
sg32
I00
sg33
I00
sg75
I00
sbsg447
g0
(g71
g2
Ntp502
Rp503
(dp504
g24
I00
sg32
I00
sg33
I00
sg75
VFULLMERGE
p505
sbsg448
g0
(g211
g2
Ntp506
Rp507
(dp508
g24
I00
sg32
I00
sg33
I00
sg75
I00
sbsg449
g0
(g211
g2
Ntp509
Rp510
(dp511
g24
I00
sg32
I00
sg33
I00
sg75
I01
sbsg450
g0
(g211
g2
Ntp512
Rp513
(dp514
g24
I00
sg32
I00
sg33
I00
sg75
I00
sbsg451
g0
(g211
g2
Ntp515
Rp516
(dp517
g24
I00
sg32
I00
sg33
I00
sg75
I01
sbsg452
g0
(g146
g2
Ntp518
Rp519
(dp520
g24
I00
sg32
I00
sg33
I00
sg150
g464
sg171
Nsbsg453
g0
(g26
g27
(lp521
tp522
Rp523
(dp524
g24
I00
sg32
I00
sg33
I00
sg34
I1
sbsg454
g0
(g26
g27
(lp525
tp526
Rp527
(dp528
g24
I00
sg32
I00
sg33
I00
sg34
I1
sbsg455
g0
(g26
g27
(lp529
tp530
Rp531
(dp532
g24
I00
sg32
I00
sg33
I00
sg34
I1
sbsg456
g0
(g26
g27
(lp533
tp534
Rp535
(dp536
g24
I00
sg32
I00
sg33
I00
sg34
I1
sbsg457
g0
(g26
g27
(lp537
tp538
Rp539
(dp540
g24
I00
sg32
I00
sg33
I00
sg34
I1
sbsg458
g0
(cFWCore.ParameterSet.Types
VPSet
p541
g27
(lp542
tp543
Rp544
(dp545
g24
I00
sg32
I00
sg33
I00
sg34
I1
sbsg459
g0
(g26
g27
(lp546
tp547
Rp548
(dp549
g24
I00
sg32
I00
sg33
I00
sg34
I1
sbsg460
g0
(g211
g2
Ntp550
Rp551
(dp552
g24
I00
sg32
I00
sg33
I00
sg75
I00
sbsg461
g0
(cFWCore.ParameterSet.Types
_ObsoleteParameter
p553
g2
Ntp554
Rp555
(dp556
g24
I00
sg32
I00
sg33
I00
sg150
g211
sg171
Nsbsg462
g0
(g553
g2
Ntp557
Rp558
(dp559
g24
I00
sg32
I00
sg33
I00
sg150
g71
sg171
Nsbsg463
g0
(g553
g2
Ntp560
Rp561
(dp562
g24
I00
sg32
I00
sg33
I00
sg150
g211
sg171
Nsbsg78
g435
sbssV_Process__vpsets
p563
(dp564
sV_cloneToObjectDict
p565
(dp566
L140356772492528L
g0
(g156
g2
Ntp567
Rp568
(dp569
g24
I00
sg32
I00
sg33
I00
sg21
(lp570
g440
ag441
ag442
ag443
ag444
ag445
ag446
ag447
ag448
ag449
ag450
ag451
ag452
ag453
ag454
ag455
ag456
ag457
ag458
ag459
ag460
ag461
ag462
ag463
asg25
Nsg440
g0
(g464
g2
Ntp571
Rp572
(dp573
g24
I00
sg32
I00
sg33
I00
sg75
I1
sbsg441
g0
(g464
g2
Ntp574
Rp575
(dp576
g24
I00
sg32
I00
sg33
I00
sg75
I0
sbsg442
g0
(g464
g2
Ntp577
Rp578
(dp579
g24
I00
sg32
I00
sg33
I00
sg75
I1
sbsg443
g0
(g464
g2
Ntp580
Rp581
(dp582
g24
I00
sg32
I00
sg33
I00
sg75
I0
sbsg444
g0
(g156
g2
Ntp583
Rp584
(dp585
g24
I00
sg32
I00
sg33
I00
sg21
(lp586
g481
ag482
asg25
Nsg481
g0
(g464
g2
Ntp587
Rp588
(dp589
g24
I00
sg32
I00
sg33
I00
sg75
I0
sbsg482
g0
(g156
g2
Ntp590
Rp591
(dp592
g24
I00
sg32
I00
sg33
I00
sg21
(lp593
sg25
g0
(g490
g2
Ntp594
Rp595
(dp596
g24
I00
sg32
I00
sg33
I00
sg150
g464
sg171
Nsbsbsbsg445
g0
(g26
g27
(lp597
g495
atp598
Rp599
(dp600
g24
I00
sg32
I00
sg33
I00
sg34
I1
sbsg446
g0
(g211
g2
Ntp601
Rp602
(dp603
g24
I00
sg32
I00
sg33
I00
sg75
I00
sbsg447
g0
(g71
g2
Ntp604
Rp605
(dp606
g24
I00
sg32
I00
sg33
I00
sg75
g505
sbsg448
g0
(g211
g2
Ntp607
Rp608
(dp609
g24
I00
sg32
I00
sg33
I00
sg75
I00
sbsg449
g0
(g211
g2
Ntp610
Rp611
(dp612
g24
I00
sg32
I00
sg33
I00
sg75
I01
sbsg450
g0
(g211
g2
Ntp613
Rp614
(dp615
g24
I00
sg32
I00
sg33
I00
sg75
I00
sbsg451
g0
(g211
g2
Ntp616
Rp617
(dp618
g24
I00
sg32
I00
sg33
I00
sg75
I01
sbsg452
g0
(g146
g2
Ntp619
Rp620
(dp621
g24
I00
sg32
I00
sg33
I00
sg150
g464
sg171
Nsbsg453
g0
(g26
g27
(lp622
tp623
Rp624
(dp625
g24
I00
sg32
I00
sg33
I00
sg34
I1
sbsg454
g0
(g26
g27
(lp626
tp627
Rp628
(dp629
g24
I00
sg32
I00
sg33
I00
sg34
I1
sbsg455
g0
(g26
g27
(lp630
tp631
Rp632
(dp633
g24
I00
sg32
I00
sg33
I00
sg34
I1
sbsg456
g0
(g26
g27
(lp634
tp635
Rp636
(dp637
g24
I00
sg32
I00
sg33
I00
sg34
I1
sbsg457
g0
(g26
g27
(lp638
tp639
Rp640
(dp641
g24
I00
sg32
I00
sg33
I00
sg34
I1
sbsg458
g0
(g541
g27
(lp642
tp643
Rp644
(dp645
g24
I00
sg32
I00
sg33
I00
sg34
I1
sbsg459
g0
(g26
g27
(lp646
tp647
Rp648
(dp649
g24
I00
sg32
I00
sg33
I00
sg34
I1
sbsg460
g0
(g211
g2
Ntp650
Rp651
(dp652
g24
I00
sg32
I00
sg33
I00
sg75
I00
sbsg461
g0
(g553
g2
Ntp653
Rp654
(dp655
g24
I00
sg32
I00
sg33
I00
sg150
g211
sg171
Nsbsg462
g0
(g553
g2
Ntp656
Rp657
(dp658
g24
I00
sg32
I00
sg33
I00
sg150
g71
sg171
Nsbsg463
g0
(g553
g2
Ntp659
Rp660
(dp661
g24
I00
sg32
I00
sg33
I00
sg150
g211
sg171
Nsbsg78
NsbsL140356758396160L
g0
(g156
g2
Ntp662
Rp663
(dp664
g24
I00
sg32
I00
sg33
I00
sg21
(lp665
g408
ag351
asg25
Nsg408
g0
(g146
g2
Ntp666
Rp667
(dp668
g24
I00
sg32
I00
sg33
I00
sg150
g164
sg171
Nsbsg351
g0
(g146
g2
Ntp669
Rp670
(dp671
g24
I00
sg32
I00
sg33
I00
sg150
g0
(g426
g2
Ntp672
Rp673
(dp674
g430
(g164
g156
tp675
sg432
Nsg433
Vallowed(cms.int32,cms.PSet)
p676
sbsg171
Nsbsg78
NsbsL140356758396064L
g405
sL140356758396832L
g414
sL140356758393520L
g437
sL140356756320064L
g47
sL140356756320112L
g88
ssV_Process__InExtendCall
p677
I00
sV_Process__partialschedules
p678
(dp679
sV_Process__isStrict
p680
I00
sV_Process__modifiers
p681
(tsV_Process__accelerators
p682
(dp683
sg403
g405
sg131
g134
sg412
g414
sVsource
p684
g17
sg20
g17
sg435
g437
sg383
g385
sg44
g47
sg85
g88
sb.