ccopy_reg
_reconstructor
p0
(cFWCore.ParameterSet.Config
Process
p1
c__builtin__
object
p2
Ntp3
Rp4
(dp5
V_Process__name
p6
VAnalysis
p7
sV_Process__filters
p8
(dp9
sV_Process__producers
p10
(dp11
sV_Process__switchproducers
p12
(dp13
sV_Process__source
p14
g0
(cFWCore.ParameterSet.Modules
Source
p15
g2
Ntp16
Rp17
(dp18
V_TypedParameterizable__type
p19
VPoolSource
p20
sV_Parameterizable__parameterNames
p21
(lp22
VfileNames
p23
asV_isFrozen
p24
I00
sV_Parameterizable__validator
p25
Nsg23
g0
(cFWCore.ParameterSet.Types
vstring
p26
c__builtin__
list
p27
(lp28
tp29
Rp30
(dp31
g24
I00
sV_ParameterTypeBase__isTracked
p32
I00
sV_isModified
p33
I00
sV_nPerLine
p34
I1
sbsg33
I00
sV_filename
p35
V/cvmfs/cms.cern.ch/el9_amd64_gcc12/cms/cmssw/CMSSW_14_0_12/src/FWCore/ParameterSet/python/Modules.py
p36
sV_lineNumber
p37
I195
sbsV_Process__looper
p38
NsV_Process__subProcesses
p39
(lp40
sV_Process__schedule
p41
NsV_Process__analyzers
p42
(dp43
g7
g0
(cFWCore.ParameterSet.Modules
EDAnalyzer
p44
g2
Ntp45
Rp46
(dp47
g19
g7
sg21
(lp48
Vmuons
p49
asg24
I00
sg25
Nsg49
g0
(cFWCore.ParameterSet.Types
InputTag
p50
g2
Ntp51
Rp52
(dp53
g24
I00
sg32
I01
sg33
I00
sV_InputTag__moduleLabel
p54
g49
sV_InputTag__productInstance
p55
V
p56
sV_InputTag__processName
p57
g56
sbsg33
I00
sg35
V/eos/home-w/wkwon/CMSSW_14_0_12/src/work/Analysis/conf.py
p58
sg37
I25
sV_Labelable__label
p59
g7
sbssV_Process__outputmodules
p60
(dp61
sV_Process__paths
p62
g0
(cFWCore.ParameterSet.DictTypes
SortedKeysDict
p63
c__builtin__
dict
p64
(dp65
Vp
p66
g0
(cFWCore.ParameterSet.SequenceTypes
Path
p67
g2
Ntp68
Rp69
(dp70
g24
I00
sV_seq
p71
g0
(cFWCore.ParameterSet.SequenceTypes
_SequenceCollection
p72
g2
Ntp73
Rp74
(dp75
V_collection
p76
(lp77
g46
asbsg33
I00
sV_tasks
p78
g0
(cFWCore.ParameterSet.OrderedSet
OrderedSet
p79
g2
Ntp80
Rp81
(dp82
Vend
p83
(lp84
Nag84
ag84
asVmap
p85
(dp86
sbsg59
g66
sbstp87
Rp88
(dp89
Vlist
p90
(lp91
g66
asbsV_Process__endpaths
p92
g0
(g63
g64
(dp93
tp94
Rp95
(dp96
g90
(lp97
sbsV_Process__finalpaths
p98
g0
(g63
g64
(dp99
tp100
Rp101
(dp102
g90
(lp103
sbsV_Process__sequences
p104
(dp105
sV_Process__tasks
p106
(dp107
sV_Process__conditionaltasks
p108
(dp109
sV_Process__services
p110
(dp111
VMessageLogger
p112
g0
(cFWCore.ParameterSet.Modules
Service
p113
g2
Ntp114
Rp115
(dp116
g19
g112
sg21
(lp117
VsuppressWarning
p118
aVsuppressFwkInfo
p119
aVsuppressInfo
p120
aVsuppressDebug
p121
aVdebugModules
p122
aVcout
p123
aVdefault
p124
aVcerr
p125
aVfiles
p126
asg24
I00
sg25
g0
(cFWCore.ParameterSet.Types
_OptionalParameter
p127
g2
Ntp128
Rp129
(dp130
g24
I00
sg32
I00
sg33
I00
sV_ProxyParameter__type
p131
g0
(cFWCore.ParameterSet.Types
_PSetTemplate
p132
g2
Ntp133
Rp134
(dp135
V_pset
p136
g0
(cFWCore.ParameterSet.Types
PSet
p137
g2
Ntp138
Rp139
(dp140
g24
I00
sg32
I01
sg33
I00
sg21
(lp141
VreportEvery
p142
aVlimit
p143
aVtimespan
p144
asg25
Nsg142
g0
(cFWCore.ParameterSet.Types
int32
p145
g2
Ntp146
Rp147
(dp148
g24
I00
sg32
I00
sg33
I00
sV_value
p149
I1
sbsg143
g0
(g127
g2
Ntp150
Rp151
(dp152
g24
I00
sg32
I00
sg33
I00
sg131
g145
sV_ProxyParameter__value
p153
Nsbsg144
g0
(g127
g2
Ntp154
Rp155
(dp156
g24
I00
sg32
I00
sg33
I00
sg131
g145
sg153
NsbsbsV_PSetTemplate__value
p157
Nsbsg153
Nsbsg118
g0
(g26
g27
(lp158
tp159
Rp160
(dp161
g24
I00
sg32
I00
sg33
I00
sg34
I1
sbsg33
I00
sg119
g0
(g26
g27
(lp162
tp163
Rp164
(dp165
g24
I00
sg32
I00
sg33
I00
sg34
I1
sbsg120
g0
(g26
g27
(lp166
tp167
Rp168
(dp169
g24
I00
sg32
I00
sg33
I00
sg34
I1
sbsg121
g0
(g26
g27
(lp170
tp171
Rp172
(dp173
g24
I00
sg32
I00
sg33
I00
sg34
I1
sbsg122
g0
(g26
g27
(lp174
tp175
Rp176
(dp177
g24
I00
sg32
I00
sg33
I00
sg34
I1
sbsg123
g0
(g137
g2
Ntp178
Rp179
(dp180
g24
I00
sg32
I00
sg33
I00
sg21
(lp181
VnoLineBreaks
p182
aVnoTimeStamps
p183
aVlineLength
p184
aVthreshold
p185
aVstatisticsThreshold
p186
aVenableStatistics
p187
aVresetStatistics
p188
aVenable
p189
asg25
g129
sg182
g0
(g127
g2
Ntp190
Rp191
(dp192
g24
I00
sg32
I00
sg33
I00
sg131
cFWCore.ParameterSet.Types
bool
p193
sg153
Nsbsg183
g0
(g127
g2
Ntp194
Rp195
(dp196
g24
I00
sg32
I00
sg33
I00
sg131
g193
sg153
Nsbsg184
g0
(g127
g2
Ntp197
Rp198
(dp199
g24
I00
sg32
I00
sg33
I00
sg131
g145
sg153
Nsbsg185
g0
(g127
g2
Ntp200
Rp201
(dp202
g24
I00
sg32
I00
sg33
I00
sg131
cFWCore.ParameterSet.Types
string
p203
sg153
Nsbsg186
g0
(g127
g2
Ntp204
Rp205
(dp206
g24
I00
sg32
I00
sg33
I00
sg131
g203
sg153
Nsbsg187
g0
(g193
g2
Ntp207
Rp208
(dp209
g24
I00
sg32
I00
sg33
I00
sg149
I00
sbsg188
g0
(g193
g2
Ntp210
Rp211
(dp212
g24
I00
sg32
I00
sg33
I00
sg149
I00
sbsg189
g0
(g193
g2
Ntp213
Rp214
(dp215
g24
I00
sg32
I00
sg33
I00
sg149
I00
sbsbsg124
g0
(g137
g2
Ntp216
Rp217
(dp218
g24
I00
sg32
I00
sg33
I00
sg21
(lp219
g142
ag143
ag144
ag182
ag183
ag184
ag185
ag186
asg25
g129
sg142
g0
(g145
g2
Ntp220
Rp221
(dp222
g24
I00
sg32
I00
sg33
I00
sg149
I1
sbsg143
g0
(g127
g2
Ntp223
Rp224
(dp225
g24
I00
sg32
I00
sg33
I00
sg131
g145
sg153
Nsbsg144
g0
(g127
g2
Ntp226
Rp227
(dp228
g24
I00
sg32
I00
sg33
I00
sg131
g145
sg153
Nsbsg182
g0
(g193
g2
Ntp229
Rp230
(dp231
g24
I00
sg32
I00
sg33
I00
sg149
I00
sbsg183
g0
(g193
g2
Ntp232
Rp233
(dp234
g24
I00
sg32
I00
sg33
I00
sg149
I00
sbsg184
g0
(g145
g2
Ntp235
Rp236
(dp237
g24
I00
sg32
I00
sg33
I00
sg149
I80
sbsg185
g0
(g203
g2
Ntp238
Rp239
(dp240
g24
I00
sg32
I00
sg33
I00
sg149
VINFO
p241
sbsg186
g0
(g203
g2
Ntp242
Rp243
(dp244
g24
I00
sg32
I00
sg33
I00
sg149
g241
sbsbsg125
g0
(g137
g2
Ntp245
Rp246
(dp247
g24
I00
sg32
I00
sg33
I00
sg21
(lp248
g182
ag183
ag184
ag185
ag186
ag189
ag187
ag188
ag241
aVFwkReport
p249
ag124
aVRoot_NoDictionary
p250
aVFwkSummary
p251
asg25
g129
sg182
g0
(g127
g2
Ntp252
Rp253
(dp254
g24
I00
sg32
I00
sg33
I00
sg131
g193
sg153
Nsbsg183
g0
(g193
g2
Ntp255
Rp256
(dp257
g24
I00
sg32
I00
sg33
I00
sg149
I00
sbsg184
g0
(g127
g2
Ntp258
Rp259
(dp260
g24
I00
sg32
I00
sg33
I00
sg131
g145
sg153
Nsbsg185
g0
(g203
g2
Ntp261
Rp262
(dp263
g24
I00
sg32
I00
sg33
I00
sg149
g241
sbsg186
g0
(g203
g2
Ntp264
Rp265
(dp266
g24
I00
sg32
I00
sg33
I00
sg149
VWARNING
p267
sbsg189
g0
(g193
g2
Ntp268
Rp269
(dp270
g24
I00
sg32
I00
sg33
I00
sg149
I01
sbsg187
g0
(g193
g2
Ntp271
Rp272
(dp273
g24
I00
sg32
I00
sg33
I00
sg149
I00
sbsg188
g0
(g193
g2
Ntp274
Rp275
(dp276
g24
I00
sg32
I00
sg33
I00
sg149
I00
sbsg241
g0
(g137
g2
Ntp277
Rp278
(dp279
g24
I00
sg32
I00
sg33
I00
sg21
(lp280
g143
asg25
Nsg143
g0
(g145
g2
Ntp281
Rp282
(dp283
g24
I00
sg32
I00
sg33
I00
sg149
I0
sbsbsg249
g0
(g137
g2
Ntp284
Rp285
(dp286
g24
I00
sg32
I00
sg33
I01
sg21
(lp287
g142
ag143
asg25
Nsg142
g0
(g145
g2
Ntp288
Rp289
(dp290
g24
I00
sg32
I00
sg33
I01
sg149
I10000
sbsg143
g0
(g145
g2
Ntp291
Rp292
(dp293
g24
I00
sg32
I00
sg33
I00
sg149
I10000000
sbsbsg124
g0
(g137
g2
Ntp294
Rp295
(dp296
g24
I00
sg32
I00
sg33
I00
sg21
(lp297
g143
asg25
Nsg143
g0
(g145
g2
Ntp298
Rp299
(dp300
g24
I00
sg32
I00
sg33
I00
sg149
I10000000
sbsbsg250
g0
(g137
g2
Ntp301
Rp302
(dp303
g24
I00
sg32
I00
sg33
I00
sg21
(lp304
g143
asg25
Nsg143
g0
(g145
g2
Ntp305
Rp306
(dp307
g24
I00
sg32
I00
sg33
I00
sg149
I0
sbsbsg251
g0
(g137
g2
Ntp308
Rp309
(dp310
g24
I00
sg32
I00
sg33
I00
sg21
(lp311
g142
ag143
asg25
Nsg142
g0
(g145
g2
Ntp312
Rp313
(dp314
g24
I00
sg32
I00
sg33
I00
sg149
I1
sbsg143
g0
(g145
g2
Ntp315
Rp316
(dp317
g24
I00
sg32
I00
sg33
I00
sg149
I10000000
sbsbsbsg126
g0
(g137
g2
Ntp318
Rp319
(dp320
g24
I00
sg32
I00
sg33
I00
sg21
(lp321
sg25
g0
(g127
g2
Ntp322
Rp323
(dp324
g24
I00
sg32
I00
sg33
I00
sg131
g0
(g132
g2
Ntp325
Rp326
(dp327
g136
g0
(g137
g2
Ntp328
Rp329
(dp330
g24
I00
sg32
I01
sg33
I00
sg21
(lp331
g182
ag183
ag184
ag185
ag186
ag187
ag188
aVfilename
p332
aVextension
p333
aVoutput
p334
asg25
g129
sg182
g0
(g127
g2
Ntp335
Rp336
(dp337
g24
I00
sg32
I00
sg33
I00
sg131
g193
sg153
Nsbsg183
g0
(g127
g2
Ntp338
Rp339
(dp340
g24
I00
sg32
I00
sg33
I00
sg131
g193
sg153
Nsbsg184
g0
(g127
g2
Ntp341
Rp342
(dp343
g24
I00
sg32
I00
sg33
I00
sg131
g145
sg153
Nsbsg185
g0
(g127
g2
Ntp344
Rp345
(dp346
g24
I00
sg32
I00
sg33
I00
sg131
g203
sg153
Nsbsg186
g0
(g127
g2
Ntp347
Rp348
(dp349
g24
I00
sg32
I00
sg33
I00
sg131
g203
sg153
Nsbsg187
g0
(g193
g2
Ntp350
Rp351
(dp352
g24
I00
sg32
I00
sg33
I00
sg149
I00
sbsg188
g0
(g193
g2
Ntp353
Rp354
(dp355
g24
I00
sg32
I00
sg33
I00
sg149
I00
sbsg332
g0
(g127
g2
Ntp356
Rp357
(dp358
g24
I00
sg32
I00
sg33
I00
sg131
g203
sg153
Nsbsg333
g0
(g127
g2
Ntp359
Rp360
(dp361
g24
I00
sg32
I00
sg33
I00
sg131
g203
sg153
Nsbsg334
g0
(g127
g2
Ntp362
Rp363
(dp364
g24
I00
sg32
I00
sg33
I00
sg131
g203
sg153
Nsbsbsg157
Nsbsg153
Nsbsbsg35
g36
sg37
I13
sV_inProcess
p365
I00
sbsVTFileService
p366
g0
(g113
g2
Ntp367
Rp368
(dp369
g19
g366
sg21
(lp370
VfileName
p371
asg24
I00
sg25
Nsg371
g0
(g203
g2
Ntp372
Rp373
(dp374
g24
I00
sg32
I01
sg33
I00
sg149
Vdata_G.root
p375
sbsg33
I00
sg35
g36
sg37
I13
sg365
I01
sbssV_Process__essources
p376
(dp377
sV_Process__esproducers
p378
(dp379
sV_Process__esprefers
p380
(dp381
sV_Process__aliases
p382
(dp383
sV_Process__psets
p384
(dp385
VmaxLuminosityBlocks
p386
g0
(g137
g2
Ntp387
Rp388
(dp389
g24
I00
sg32
I00
sg33
I00
sg21
(lp390
Vinput
p391
asg25
Nsg391
g0
(g145
g2
Ntp392
Rp393
(dp394
g24
I00
sg32
I00
sg33
I00
sg149
I-1
sbsg59
g386
sbsVmaxEvents
p395
g0
(g137
g2
Ntp396
Rp397
(dp398
g24
I00
sg32
I00
sg33
I01
sg21
(lp399
g391
ag334
asg25
Nsg391
g0
(g127
g2
Ntp400
Rp401
(dp402
g24
I00
sg32
I00
sg33
I00
sg131
g145
sg153
g0
(g145
g2
Ntp403
Rp404
(dp405
g24
I00
sg32
I00
sg33
I00
sg149
I-1
sbsbsg334
g0
(g127
g2
Ntp406
Rp407
(dp408
g24
I00
sg32
I00
sg33
I00
sg131
g0
(cFWCore.ParameterSet.Types
_AllowedParameterTypes
p409
g2
Ntp410
Rp411
(dp412
V_AllowedParameterTypes__types
p413
(g145
g137
tp414
sV_default
p415
NsV__name__
p416
Vallowed(cms.int32,cms.PSet)
p417
sbsg153
Nsbsg59
g395
sbsVoptions
p418
g0
(g137
g2
Ntp419
Rp420
(dp421
g24
I00
sg32
I00
sg33
I01
sg21
(lp422
VnumberOfThreads
p423
aVnumberOfStreams
p424
aVnumberOfConcurrentRuns
p425
aVnumberOfConcurrentLuminosityBlocks
p426
aVeventSetup
p427
aVaccelerators
p428
aVwantSummary
p429
aVfileMode
p430
aVforceEventSetupCacheClearOnNewRun
p431
aVthrowIfIllegalParameter
p432
aVprintDependencies
p433
aVdeleteNonConsumedUnscheduledModules
p434
aVsizeOfStackForThreadsInKB
p435
aVRethrow
p436
aVTryToContinue
p437
aVIgnoreCompletely
p438
aVmodulesToCallForTryToContinue
p439
aVcanDeleteEarly
p440
aVholdsReferencesToDeleteEarly
p441
aVmodulesToIgnoreForDeleteEarly
p442
aVdumpOptions
p443
aVallowUnscheduled
p444
aVemptyRunLumiMode
p445
aVmakeTriggerResults
p446
asg25
Nsg423
g0
(cFWCore.ParameterSet.Types
uint32
p447
g2
Ntp448
Rp449
(dp450
g24
I00
sg32
I00
sg33
I00
sg149
I1
sbsg424
g0
(g447
g2
Ntp451
Rp452
(dp453
g24
I00
sg32
I00
sg33
I00
sg149
I0
sbsg425
g0
(g447
g2
Ntp454
Rp455
(dp456
g24
I00
sg32
I00
sg33
I00
sg149
I1
sbsg426
g0
(g447
g2
Ntp457
Rp458
(dp459
g24
I00
sg32
I00
sg33
I00
sg149
I0
sbsg427
g0
(g137
g2
Ntp460
Rp461
(dp462
g24
I00
sg32
I00
sg33
I00
sg21
(lp463
VnumberOfConcurrentIOVs
p464
aVforceNumberOfConcurrentIOVs
p465
asg25
Nsg464
g0
(g447
g2
Ntp466
Rp467
(dp468
g24
I00
sg32
I00
sg33
I00
sg149
I0
sbsg465
g0
(g137
g2
Ntp469
Rp470
(dp471
g24
I00
sg32
I00
sg33
I00
sg21
(lp472
sg25
g0
(cFWCore.ParameterSet.Types
_RequiredParameter
p473
g2
Ntp474
Rp475
(dp476
g24
I00
sg32
I00
sg33
I00
sg131
g447
sg153
Nsbsbsbsg428
g0
(g26
g27
(lp477
V*
p478
atp479
Rp480
(dp481
g24
I00
sg32
I00
sg33
I00
sg34
I1
sbsg429
g0
(g193
g2
Ntp482
Rp483
(dp484
g24
I00
sg32
I00
sg33
I00
sg149
I00
sbsg430
g0
(g203
g2
Ntp485
Rp486
(dp487
g24
I00
sg32
I00
sg33
I00
sg149
VFULLMERGE
p488
sbsg431
g0
(g193
g2
Ntp489
Rp490
(dp491
g24
I00
sg32
I00
sg33
I00
sg149
I00
sbsg432
g0
(g193
g2
Ntp492
Rp493
(dp494
g24
I00
sg32
I00
sg33
I00
sg149
I01
sbsg433
g0
(g193
g2
Ntp495
Rp496
(dp497
g24
I00
sg32
I00
sg33
I00
sg149
I00
sbsg434
g0
(g193
g2
Ntp498
Rp499
(dp500
g24
I00
sg32
I00
sg33
I00
sg149
I01
sbsg435
g0
(g127
g2
Ntp501
Rp502
(dp503
g24
I00
sg32
I00
sg33
I00
sg131
g447
sg153
Nsbsg436
g0
(g26
g27
(lp504
tp505
Rp506
(dp507
g24
I00
sg32
I00
sg33
I00
sg34
I1
sbsg437
g0
(g26
g27
(lp508
tp509
Rp510
(dp511
g24
I00
sg32
I00
sg33
I00
sg34
I1
sbsg438
g0
(g26
g27
(lp512
tp513
Rp514
(dp515
g24
I00
sg32
I00
sg33
I00
sg34
I1
sbsg439
g0
(g26
g27
(lp516
tp517
Rp518
(dp519
g24
I00
sg32
I00
sg33
I00
sg34
I1
sbsg440
g0
(g26
g27
(lp520
tp521
Rp522
(dp523
g24
I00
sg32
I00
sg33
I00
sg34
I1
sbsg441
g0
(cFWCore.ParameterSet.Types
VPSet
p524
g27
(lp525
tp526
Rp527
(dp528
g24
I00
sg32
I00
sg33
I00
sg34
I1
sbsg442
g0
(g26
g27
(lp529
tp530
Rp531
(dp532
g24
I00
sg32
I00
sg33
I00
sg34
I1
sbsg443
g0
(g193
g2
Ntp533
Rp534
(dp535
g24
I00
sg32
I00
sg33
I00
sg149
I00
sbsg444
g0
(cFWCore.ParameterSet.Types
_ObsoleteParameter
p536
g2
Ntp537
Rp538
(dp539
g24
I00
sg32
I00
sg33
I00
sg131
g193
sg153
Nsbsg445
g0
(g536
g2
Ntp540
Rp541
(dp542
g24
I00
sg32
I00
sg33
I00
sg131
g203
sg153
Nsbsg446
g0
(g536
g2
Ntp543
Rp544
(dp545
g24
I00
sg32
I00
sg33
I00
sg131
g193
sg153
Nsbsg59
g418
sbssV_Process__vpsets
p546
(dp547
sV_cloneToObjectDict
p548
(dp549
L140540851380432L
g0
(g137
g2
Ntp550
Rp551
(dp552
g24
I00
sg32
I00
sg33
I00
sg21
(lp553
g423
ag424
ag425
ag426
ag427
ag428
ag429
ag430
ag431
ag432
ag433
ag434
ag435
ag436
ag437
ag438
ag439
ag440
ag441
ag442
ag443
ag444
ag445
ag446
asg25
Nsg423
g0
(g447
g2
Ntp554
Rp555
(dp556
g24
I00
sg32
I00
sg33
I00
sg149
I1
sbsg424
g0
(g447
g2
Ntp557
Rp558
(dp559
g24
I00
sg32
I00
sg33
I00
sg149
I0
sbsg425
g0
(g447
g2
Ntp560
Rp561
(dp562
g24
I00
sg32
I00
sg33
I00
sg149
I1
sbsg426
g0
(g447
g2
Ntp563
Rp564
(dp565
g24
I00
sg32
I00
sg33
I00
sg149
I0
sbsg427
g0
(g137
g2
Ntp566
Rp567
(dp568
g24
I00
sg32
I00
sg33
I00
sg21
(lp569
g464
ag465
asg25
Nsg464
g0
(g447
g2
Ntp570
Rp571
(dp572
g24
I00
sg32
I00
sg33
I00
sg149
I0
sbsg465
g0
(g137
g2
Ntp573
Rp574
(dp575
g24
I00
sg32
I00
sg33
I00
sg21
(lp576
sg25
g0
(g473
g2
Ntp577
Rp578
(dp579
g24
I00
sg32
I00
sg33
I00
sg131
g447
sg153
Nsbsbsbsg428
g0
(g26
g27
(lp580
g478
atp581
Rp582
(dp583
g24
I00
sg32
I00
sg33
I00
sg34
I1
sbsg429
g0
(g193
g2
Ntp584
Rp585
(dp586
g24
I00
sg32
I00
sg33
I00
sg149
I00
sbsg430
g0
(g203
g2
Ntp587
Rp588
(dp589
g24
I00
sg32
I00
sg33
I00
sg149
g488
sbsg431
g0
(g193
g2
Ntp590
Rp591
(dp592
g24
I00
sg32
I00
sg33
I00
sg149
I00
sbsg432
g0
(g193
g2
Ntp593
Rp594
(dp595
g24
I00
sg32
I00
sg33
I00
sg149
I01
sbsg433
g0
(g193
g2
Ntp596
Rp597
(dp598
g24
I00
sg32
I00
sg33
I00
sg149
I00
sbsg434
g0
(g193
g2
Ntp599
Rp600
(dp601
g24
I00
sg32
I00
sg33
I00
sg149
I01
sbsg435
g0
(g127
g2
Ntp602
Rp603
(dp604
g24
I00
sg32
I00
sg33
I00
sg131
g447
sg153
Nsbsg436
g0
(g26
g27
(lp605
tp606
Rp607
(dp608
g24
I00
sg32
I00
sg33
I00
sg34
I1
sbsg437
g0
(g26
g27
(lp609
tp610
Rp611
(dp612
g24
I00
sg32
I00
sg33
I00
sg34
I1
sbsg438
g0
(g26
g27
(lp613
tp614
Rp615
(dp616
g24
I00
sg32
I00
sg33
I00
sg34
I1
sbsg439
g0
(g26
g27
(lp617
tp618
Rp619
(dp620
g24
I00
sg32
I00
sg33
I00
sg34
I1
sbsg440
g0
(g26
g27
(lp621
tp622
Rp623
(dp624
g24
I00
sg32
I00
sg33
I00
sg34
I1
sbsg441
g0
(g524
g27
(lp625
tp626
Rp627
(dp628
g24
I00
sg32
I00
sg33
I00
sg34
I1
sbsg442
g0
(g26
g27
(lp629
tp630
Rp631
(dp632
g24
I00
sg32
I00
sg33
I00
sg34
I1
sbsg443
g0
(g193
g2
Ntp633
Rp634
(dp635
g24
I00
sg32
I00
sg33
I00
sg149
I00
sbsg444
g0
(g536
g2
Ntp636
Rp637
(dp638
g24
I00
sg32
I00
sg33
I00
sg131
g193
sg153
Nsbsg445
g0
(g536
g2
Ntp639
Rp640
(dp641
g24
I00
sg32
I00
sg33
I00
sg131
g203
sg153
Nsbsg446
g0
(g536
g2
Ntp642
Rp643
(dp644
g24
I00
sg32
I00
sg33
I00
sg131
g193
sg153
Nsbsg59
NsbsL140540849971312L
g0
(g137
g2
Ntp645
Rp646
(dp647
g24
I00
sg32
I00
sg33
I00
sg21
(lp648
g391
ag334
asg25
Nsg391
g0
(g127
g2
Ntp649
Rp650
(dp651
g24
I00
sg32
I00
sg33
I00
sg131
g145
sg153
Nsbsg334
g0
(g127
g2
Ntp652
Rp653
(dp654
g24
I00
sg32
I00
sg33
I00
sg131
g0
(g409
g2
Ntp655
Rp656
(dp657
g413
(g145
g137
tp658
sg415
Nsg416
Vallowed(cms.int32,cms.PSet)
p659
sbsg153
Nsbsg59
NsbsL140540849971408L
g388
sL140540849975008L
g397
sL140540849974048L
g420
sL140540849973664L
g46
sL140540849973184L
g69
ssV_Process__InExtendCall
p660
I00
sV_Process__partialschedules
p661
(dp662
sV_Process__isStrict
p663
I00
sV_Process__modifiers
p664
(tsV_Process__accelerators
p665
(dp666
sg386
g388
sg112
g115
sg395
g397
sVsource
p667
g17
sg20
g17
sg418
g420
sg366
g368
sg7
g46
sg66
g69
sb.