ccopy_reg
_reconstructor
p0
(cFWCore.ParameterSet.Config
Process
p1
c__builtin__
object
p2
Ntp3
Rp4
(dp5
V_Process__name
p6
VAnalysis
p7
sV_Process__filters
p8
(dp9
sV_Process__producers
p10
(dp11
sV_Process__switchproducers
p12
(dp13
sV_Process__source
p14
g0
(cFWCore.ParameterSet.Modules
Source
p15
g2
Ntp16
Rp17
(dp18
V_TypedParameterizable__type
p19
VPoolSource
p20
sV_Parameterizable__parameterNames
p21
(lp22
VfileNames
p23
asV_isFrozen
p24
I00
sV_Parameterizable__validator
p25
Nsg23
g0
(cFWCore.ParameterSet.Types
vstring
p26
c__builtin__
list
p27
(lp28
tp29
Rp30
(dp31
g24
I00
sV_ParameterTypeBase__isTracked
p32
I00
sV_isModified
p33
I00
sV_nPerLine
p34
I1
sbsg33
I00
sV_filename
p35
V/cvmfs/cms.cern.ch/el9_amd64_gcc12/cms/cmssw/CMSSW_14_0_12/src/FWCore/ParameterSet/python/Modules.py
p36
sV_lineNumber
p37
I195
sbsV_Process__looper
p38
NsV_Process__subProcesses
p39
(lp40
sV_Process__schedule
p41
NsV_Process__analyzers
p42
(dp43
g7
g0
(cFWCore.ParameterSet.Modules
EDAnalyzer
p44
g2
Ntp45
Rp46
(dp47
g19
g7
sg21
(lp48
Vmuons
p49
aVtriggerResults
p50
aVvertices
p51
aVhltPath
p52
asg24
I00
sg25
Nsg49
g0
(cFWCore.ParameterSet.Types
InputTag
p53
g2
Ntp54
Rp55
(dp56
g24
I00
sg32
I01
sg33
I00
sV_InputTag__moduleLabel
p57
g49
sV_InputTag__productInstance
p58
V
p59
sV_InputTag__processName
p60
g59
sbsg33
I00
sg50
g0
(g53
g2
Ntp61
Rp62
(dp63
g24
I00
sg32
I01
sg33
I00
sg57
VTriggerResults
p64
sg58
g59
sg60
VHLT
p65
sbsg51
g0
(g53
g2
Ntp66
Rp67
(dp68
g24
I00
sg32
I01
sg33
I00
sg57
VofflinePrimaryVertices
p69
sg58
g59
sg60
g59
sbsg52
g0
(cFWCore.ParameterSet.Types
string
p70
g2
Ntp71
Rp72
(dp73
g24
I00
sg32
I01
sg33
I00
sV_value
p74
VHLT_IsoMu24_v
p75
sbsg35
V/eos/home-w/wkwon/CMSSW_14_0_12/src/work/Analysis/conf.py
p76
sg37
I26
sV_Labelable__label
p77
g7
sbssV_Process__outputmodules
p78
(dp79
sV_Process__paths
p80
g0
(cFWCore.ParameterSet.DictTypes
SortedKeysDict
p81
c__builtin__
dict
p82
(dp83
Vp
p84
g0
(cFWCore.ParameterSet.SequenceTypes
Path
p85
g2
Ntp86
Rp87
(dp88
g24
I00
sV_seq
p89
g0
(cFWCore.ParameterSet.SequenceTypes
_SequenceCollection
p90
g2
Ntp91
Rp92
(dp93
V_collection
p94
(lp95
g46
asbsg33
I00
sV_tasks
p96
g0
(cFWCore.ParameterSet.OrderedSet
OrderedSet
p97
g2
Ntp98
Rp99
(dp100
Vend
p101
(lp102
Nag102
ag102
asVmap
p103
(dp104
sbsg77
g84
sbstp105
Rp106
(dp107
Vlist
p108
(lp109
g84
asbsV_Process__endpaths
p110
g0
(g81
g82
(dp111
tp112
Rp113
(dp114
g108
(lp115
sbsV_Process__finalpaths
p116
g0
(g81
g82
(dp117
tp118
Rp119
(dp120
g108
(lp121
sbsV_Process__sequences
p122
(dp123
sV_Process__tasks
p124
(dp125
sV_Process__conditionaltasks
p126
(dp127
sV_Process__services
p128
(dp129
VMessageLogger
p130
g0
(cFWCore.ParameterSet.Modules
Service
p131
g2
Ntp132
Rp133
(dp134
g19
g130
sg21
(lp135
VsuppressWarning
p136
aVsuppressFwkInfo
p137
aVsuppressInfo
p138
aVsuppressDebug
p139
aVdebugModules
p140
aVcout
p141
aVdefault
p142
aVcerr
p143
aVfiles
p144
asg24
I00
sg25
g0
(cFWCore.ParameterSet.Types
_OptionalParameter
p145
g2
Ntp146
Rp147
(dp148
g24
I00
sg32
I00
sg33
I00
sV_ProxyParameter__type
p149
g0
(cFWCore.ParameterSet.Types
_PSetTemplate
p150
g2
Ntp151
Rp152
(dp153
V_pset
p154
g0
(cFWCore.ParameterSet.Types
PSet
p155
g2
Ntp156
Rp157
(dp158
g24
I00
sg32
I01
sg33
I00
sg21
(lp159
VreportEvery
p160
aVlimit
p161
aVtimespan
p162
asg25
Nsg160
g0
(cFWCore.ParameterSet.Types
int32
p163
g2
Ntp164
Rp165
(dp166
g24
I00
sg32
I00
sg33
I00
sg74
I1
sbsg161
g0
(g145
g2
Ntp167
Rp168
(dp169
g24
I00
sg32
I00
sg33
I00
sg149
g163
sV_ProxyParameter__value
p170
Nsbsg162
g0
(g145
g2
Ntp171
Rp172
(dp173
g24
I00
sg32
I00
sg33
I00
sg149
g163
sg170
NsbsbsV_PSetTemplate__value
p174
Nsbsg170
Nsbsg136
g0
(g26
g27
(lp175
tp176
Rp177
(dp178
g24
I00
sg32
I00
sg33
I00
sg34
I1
sbsg33
I00
sg137
g0
(g26
g27
(lp179
tp180
Rp181
(dp182
g24
I00
sg32
I00
sg33
I00
sg34
I1
sbsg138
g0
(g26
g27
(lp183
tp184
Rp185
(dp186
g24
I00
sg32
I00
sg33
I00
sg34
I1
sbsg139
g0
(g26
g27
(lp187
tp188
Rp189
(dp190
g24
I00
sg32
I00
sg33
I00
sg34
I1
sbsg140
g0
(g26
g27
(lp191
tp192
Rp193
(dp194
g24
I00
sg32
I00
sg33
I00
sg34
I1
sbsg141
g0
(g155
g2
Ntp195
Rp196
(dp197
g24
I00
sg32
I00
sg33
I00
sg21
(lp198
VnoLineBreaks
p199
aVnoTimeStamps
p200
aVlineLength
p201
aVthreshold
p202
aVstatisticsThreshold
p203
aVenableStatistics
p204
aVresetStatistics
p205
aVenable
p206
asg25
g147
sg199
g0
(g145
g2
Ntp207
Rp208
(dp209
g24
I00
sg32
I00
sg33
I00
sg149
cFWCore.ParameterSet.Types
bool
p210
sg170
Nsbsg200
g0
(g145
g2
Ntp211
Rp212
(dp213
g24
I00
sg32
I00
sg33
I00
sg149
g210
sg170
Nsbsg201
g0
(g145
g2
Ntp214
Rp215
(dp216
g24
I00
sg32
I00
sg33
I00
sg149
g163
sg170
Nsbsg202
g0
(g145
g2
Ntp217
Rp218
(dp219
g24
I00
sg32
I00
sg33
I00
sg149
g70
sg170
Nsbsg203
g0
(g145
g2
Ntp220
Rp221
(dp222
g24
I00
sg32
I00
sg33
I00
sg149
g70
sg170
Nsbsg204
g0
(g210
g2
Ntp223
Rp224
(dp225
g24
I00
sg32
I00
sg33
I00
sg74
I00
sbsg205
g0
(g210
g2
Ntp226
Rp227
(dp228
g24
I00
sg32
I00
sg33
I00
sg74
I00
sbsg206
g0
(g210
g2
Ntp229
Rp230
(dp231
g24
I00
sg32
I00
sg33
I00
sg74
I00
sbsbsg142
g0
(g155
g2
Ntp232
Rp233
(dp234
g24
I00
sg32
I00
sg33
I00
sg21
(lp235
g160
ag161
ag162
ag199
ag200
ag201
ag202
ag203
asg25
g147
sg160
g0
(g163
g2
Ntp236
Rp237
(dp238
g24
I00
sg32
I00
sg33
I00
sg74
I1
sbsg161
g0
(g145
g2
Ntp239
Rp240
(dp241
g24
I00
sg32
I00
sg33
I00
sg149
g163
sg170
Nsbsg162
g0
(g145
g2
Ntp242
Rp243
(dp244
g24
I00
sg32
I00
sg33
I00
sg149
g163
sg170
Nsbsg199
g0
(g210
g2
Ntp245
Rp246
(dp247
g24
I00
sg32
I00
sg33
I00
sg74
I00
sbsg200
g0
(g210
g2
Ntp248
Rp249
(dp250
g24
I00
sg32
I00
sg33
I00
sg74
I00
sbsg201
g0
(g163
g2
Ntp251
Rp252
(dp253
g24
I00
sg32
I00
sg33
I00
sg74
I80
sbsg202
g0
(g70
g2
Ntp254
Rp255
(dp256
g24
I00
sg32
I00
sg33
I00
sg74
VINFO
p257
sbsg203
g0
(g70
g2
Ntp258
Rp259
(dp260
g24
I00
sg32
I00
sg33
I00
sg74
g257
sbsbsg143
g0
(g155
g2
Ntp261
Rp262
(dp263
g24
I00
sg32
I00
sg33
I00
sg21
(lp264
g199
ag200
ag201
ag202
ag203
ag206
ag204
ag205
ag257
aVFwkReport
p265
ag142
aVRoot_NoDictionary
p266
aVFwkSummary
p267
asg25
g147
sg199
g0
(g145
g2
Ntp268
Rp269
(dp270
g24
I00
sg32
I00
sg33
I00
sg149
g210
sg170
Nsbsg200
g0
(g210
g2
Ntp271
Rp272
(dp273
g24
I00
sg32
I00
sg33
I00
sg74
I00
sbsg201
g0
(g145
g2
Ntp274
Rp275
(dp276
g24
I00
sg32
I00
sg33
I00
sg149
g163
sg170
Nsbsg202
g0
(g70
g2
Ntp277
Rp278
(dp279
g24
I00
sg32
I00
sg33
I00
sg74
g257
sbsg203
g0
(g70
g2
Ntp280
Rp281
(dp282
g24
I00
sg32
I00
sg33
I00
sg74
VWARNING
p283
sbsg206
g0
(g210
g2
Ntp284
Rp285
(dp286
g24
I00
sg32
I00
sg33
I00
sg74
I01
sbsg204
g0
(g210
g2
Ntp287
Rp288
(dp289
g24
I00
sg32
I00
sg33
I00
sg74
I00
sbsg205
g0
(g210
g2
Ntp290
Rp291
(dp292
g24
I00
sg32
I00
sg33
I00
sg74
I00
sbsg257
g0
(g155
g2
Ntp293
Rp294
(dp295
g24
I00
sg32
I00
sg33
I00
sg21
(lp296
g161
asg25
Nsg161
g0
(g163
g2
Ntp297
Rp298
(dp299
g24
I00
sg32
I00
sg33
I00
sg74
I0
sbsbsg265
g0
(g155
g2
Ntp300
Rp301
(dp302
g24
I00
sg32
I00
sg33
I01
sg21
(lp303
g160
ag161
asg25
Nsg160
g0
(g163
g2
Ntp304
Rp305
(dp306
g24
I00
sg32
I00
sg33
I01
sg74
I10000
sbsg161
g0
(g163
g2
Ntp307
Rp308
(dp309
g24
I00
sg32
I00
sg33
I00
sg74
I10000000
sbsbsg142
g0
(g155
g2
Ntp310
Rp311
(dp312
g24
I00
sg32
I00
sg33
I00
sg21
(lp313
g161
asg25
Nsg161
g0
(g163
g2
Ntp314
Rp315
(dp316
g24
I00
sg32
I00
sg33
I00
sg74
I10000000
sbsbsg266
g0
(g155
g2
Ntp317
Rp318
(dp319
g24
I00
sg32
I00
sg33
I00
sg21
(lp320
g161
asg25
Nsg161
g0
(g163
g2
Ntp321
Rp322
(dp323
g24
I00
sg32
I00
sg33
I00
sg74
I0
sbsbsg267
g0
(g155
g2
Ntp324
Rp325
(dp326
g24
I00
sg32
I00
sg33
I00
sg21
(lp327
g160
ag161
asg25
Nsg160
g0
(g163
g2
Ntp328
Rp329
(dp330
g24
I00
sg32
I00
sg33
I00
sg74
I1
sbsg161
g0
(g163
g2
Ntp331
Rp332
(dp333
g24
I00
sg32
I00
sg33
I00
sg74
I10000000
sbsbsbsg144
g0
(g155
g2
Ntp334
Rp335
(dp336
g24
I00
sg32
I00
sg33
I00
sg21
(lp337
sg25
g0
(g145
g2
Ntp338
Rp339
(dp340
g24
I00
sg32
I00
sg33
I00
sg149
g0
(g150
g2
Ntp341
Rp342
(dp343
g154
g0
(g155
g2
Ntp344
Rp345
(dp346
g24
I00
sg32
I01
sg33
I00
sg21
(lp347
g199
ag200
ag201
ag202
ag203
ag204
ag205
aVfilename
p348
aVextension
p349
aVoutput
p350
asg25
g147
sg199
g0
(g145
g2
Ntp351
Rp352
(dp353
g24
I00
sg32
I00
sg33
I00
sg149
g210
sg170
Nsbsg200
g0
(g145
g2
Ntp354
Rp355
(dp356
g24
I00
sg32
I00
sg33
I00
sg149
g210
sg170
Nsbsg201
g0
(g145
g2
Ntp357
Rp358
(dp359
g24
I00
sg32
I00
sg33
I00
sg149
g163
sg170
Nsbsg202
g0
(g145
g2
Ntp360
Rp361
(dp362
g24
I00
sg32
I00
sg33
I00
sg149
g70
sg170
Nsbsg203
g0
(g145
g2
Ntp363
Rp364
(dp365
g24
I00
sg32
I00
sg33
I00
sg149
g70
sg170
Nsbsg204
g0
(g210
g2
Ntp366
Rp367
(dp368
g24
I00
sg32
I00
sg33
I00
sg74
I00
sbsg205
g0
(g210
g2
Ntp369
Rp370
(dp371
g24
I00
sg32
I00
sg33
I00
sg74
I00
sbsg348
g0
(g145
g2
Ntp372
Rp373
(dp374
g24
I00
sg32
I00
sg33
I00
sg149
g70
sg170
Nsbsg349
g0
(g145
g2
Ntp375
Rp376
(dp377
g24
I00
sg32
I00
sg33
I00
sg149
g70
sg170
Nsbsg350
g0
(g145
g2
Ntp378
Rp379
(dp380
g24
I00
sg32
I00
sg33
I00
sg149
g70
sg170
Nsbsbsg174
Nsbsg170
Nsbsbsg35
g36
sg37
I13
sV_inProcess
p381
I00
sbsVTFileService
p382
g0
(g131
g2
Ntp383
Rp384
(dp385
g19
g382
sg21
(lp386
VfileName
p387
asg24
I00
sg25
Nsg387
g0
(g70
g2
Ntp388
Rp389
(dp390
g24
I00
sg32
I01
sg33
I00
sg74
Vdata.root
p391
sbsg33
I00
sg35
g36
sg37
I13
sg381
I01
sbssV_Process__essources
p392
(dp393
sV_Process__esproducers
p394
(dp395
sV_Process__esprefers
p396
(dp397
sV_Process__aliases
p398
(dp399
sV_Process__psets
p400
(dp401
VmaxLuminosityBlocks
p402
g0
(g155
g2
Ntp403
Rp404
(dp405
g24
I00
sg32
I00
sg33
I00
sg21
(lp406
Vinput
p407
asg25
Nsg407
g0
(g163
g2
Ntp408
Rp409
(dp410
g24
I00
sg32
I00
sg33
I00
sg74
I-1
sbsg77
g402
sbsVmaxEvents
p411
g0
(g155
g2
Ntp412
Rp413
(dp414
g24
I00
sg32
I00
sg33
I01
sg21
(lp415
g407
ag350
asg25
Nsg407
g0
(g145
g2
Ntp416
Rp417
(dp418
g24
I00
sg32
I00
sg33
I00
sg149
g163
sg170
g0
(g163
g2
Ntp419
Rp420
(dp421
g24
I00
sg32
I00
sg33
I00
sg74
I-1
sbsbsg350
g0
(g145
g2
Ntp422
Rp423
(dp424
g24
I00
sg32
I00
sg33
I00
sg149
g0
(cFWCore.ParameterSet.Types
_AllowedParameterTypes
p425
g2
Ntp426
Rp427
(dp428
V_AllowedParameterTypes__types
p429
(g163
g155
tp430
sV_default
p431
NsV__name__
p432
Vallowed(cms.int32,cms.PSet)
p433
sbsg170
Nsbsg77
g411
sbsVoptions
p434
g0
(g155
g2
Ntp435
Rp436
(dp437
g24
I00
sg32
I00
sg33
I01
sg21
(lp438
VnumberOfThreads
p439
aVnumberOfStreams
p440
aVnumberOfConcurrentRuns
p441
aVnumberOfConcurrentLuminosityBlocks
p442
aVeventSetup
p443
aVaccelerators
p444
aVwantSummary
p445
aVfileMode
p446
aVforceEventSetupCacheClearOnNewRun
p447
aVthrowIfIllegalParameter
p448
aVprintDependencies
p449
aVdeleteNonConsumedUnscheduledModules
p450
aVsizeOfStackForThreadsInKB
p451
aVRethrow
p452
aVTryToContinue
p453
aVIgnoreCompletely
p454
aVmodulesToCallForTryToContinue
p455
aVcanDeleteEarly
p456
aVholdsReferencesToDeleteEarly
p457
aVmodulesToIgnoreForDeleteEarly
p458
aVdumpOptions
p459
aVallowUnscheduled
p460
aVemptyRunLumiMode
p461
aVmakeTriggerResults
p462
asg25
Nsg439
g0
(cFWCore.ParameterSet.Types
uint32
p463
g2
Ntp464
Rp465
(dp466
g24
I00
sg32
I00
sg33
I00
sg74
I1
sbsg440
g0
(g463
g2
Ntp467
Rp468
(dp469
g24
I00
sg32
I00
sg33
I00
sg74
I0
sbsg441
g0
(g463
g2
Ntp470
Rp471
(dp472
g24
I00
sg32
I00
sg33
I00
sg74
I1
sbsg442
g0
(g463
g2
Ntp473
Rp474
(dp475
g24
I00
sg32
I00
sg33
I00
sg74
I0
sbsg443
g0
(g155
g2
Ntp476
Rp477
(dp478
g24
I00
sg32
I00
sg33
I00
sg21
(lp479
VnumberOfConcurrentIOVs
p480
aVforceNumberOfConcurrentIOVs
p481
asg25
Nsg480
g0
(g463
g2
Ntp482
Rp483
(dp484
g24
I00
sg32
I00
sg33
I00
sg74
I0
sbsg481
g0
(g155
g2
Ntp485
Rp486
(dp487
g24
I00
sg32
I00
sg33
I00
sg21
(lp488
sg25
g0
(cFWCore.ParameterSet.Types
_RequiredParameter
p489
g2
Ntp490
Rp491
(dp492
g24
I00
sg32
I00
sg33
I00
sg149
g463
sg170
Nsbsbsbsg444
g0
(g26
g27
(lp493
V*
p494
atp495
Rp496
(dp497
g24
I00
sg32
I00
sg33
I00
sg34
I1
sbsg445
g0
(g210
g2
Ntp498
Rp499
(dp500
g24
I00
sg32
I00
sg33
I00
sg74
I00
sbsg446
g0
(g70
g2
Ntp501
Rp502
(dp503
g24
I00
sg32
I00
sg33
I00
sg74
VFULLMERGE
p504
sbsg447
g0
(g210
g2
Ntp505
Rp506
(dp507
g24
I00
sg32
I00
sg33
I00
sg74
I00
sbsg448
g0
(g210
g2
Ntp508
Rp509
(dp510
g24
I00
sg32
I00
sg33
I00
sg74
I01
sbsg449
g0
(g210
g2
Ntp511
Rp512
(dp513
g24
I00
sg32
I00
sg33
I00
sg74
I00
sbsg450
g0
(g210
g2
Ntp514
Rp515
(dp516
g24
I00
sg32
I00
sg33
I00
sg74
I01
sbsg451
g0
(g145
g2
Ntp517
Rp518
(dp519
g24
I00
sg32
I00
sg33
I00
sg149
g463
sg170
Nsbsg452
g0
(g26
g27
(lp520
tp521
Rp522
(dp523
g24
I00
sg32
I00
sg33
I00
sg34
I1
sbsg453
g0
(g26
g27
(lp524
tp525
Rp526
(dp527
g24
I00
sg32
I00
sg33
I00
sg34
I1
sbsg454
g0
(g26
g27
(lp528
tp529
Rp530
(dp531
g24
I00
sg32
I00
sg33
I00
sg34
I1
sbsg455
g0
(g26
g27
(lp532
tp533
Rp534
(dp535
g24
I00
sg32
I00
sg33
I00
sg34
I1
sbsg456
g0
(g26
g27
(lp536
tp537
Rp538
(dp539
g24
I00
sg32
I00
sg33
I00
sg34
I1
sbsg457
g0
(cFWCore.ParameterSet.Types
VPSet
p540
g27
(lp541
tp542
Rp543
(dp544
g24
I00
sg32
I00
sg33
I00
sg34
I1
sbsg458
g0
(g26
g27
(lp545
tp546
Rp547
(dp548
g24
I00
sg32
I00
sg33
I00
sg34
I1
sbsg459
g0
(g210
g2
Ntp549
Rp550
(dp551
g24
I00
sg32
I00
sg33
I00
sg74
I00
sbsg460
g0
(cFWCore.ParameterSet.Types
_ObsoleteParameter
p552
g2
Ntp553
Rp554
(dp555
g24
I00
sg32
I00
sg33
I00
sg149
g210
sg170
Nsbsg461
g0
(g552
g2
Ntp556
Rp557
(dp558
g24
I00
sg32
I00
sg33
I00
sg149
g70
sg170
Nsbsg462
g0
(g552
g2
Ntp559
Rp560
(dp561
g24
I00
sg32
I00
sg33
I00
sg149
g210
sg170
Nsbsg77
g434
sbssV_Process__vpsets
p562
(dp563
sV_cloneToObjectDict
p564
(dp565
L140065697826512L
g0
(g155
g2
Ntp566
Rp567
(dp568
g24
I00
sg32
I00
sg33
I00
sg21
(lp569
g439
ag440
ag441
ag442
ag443
ag444
ag445
ag446
ag447
ag448
ag449
ag450
ag451
ag452
ag453
ag454
ag455
ag456
ag457
ag458
ag459
ag460
ag461
ag462
asg25
Nsg439
g0
(g463
g2
Ntp570
Rp571
(dp572
g24
I00
sg32
I00
sg33
I00
sg74
I1
sbsg440
g0
(g463
g2
Ntp573
Rp574
(dp575
g24
I00
sg32
I00
sg33
I00
sg74
I0
sbsg441
g0
(g463
g2
Ntp576
Rp577
(dp578
g24
I00
sg32
I00
sg33
I00
sg74
I1
sbsg442
g0
(g463
g2
Ntp579
Rp580
(dp581
g24
I00
sg32
I00
sg33
I00
sg74
I0
sbsg443
g0
(g155
g2
Ntp582
Rp583
(dp584
g24
I00
sg32
I00
sg33
I00
sg21
(lp585
g480
ag481
asg25
Nsg480
g0
(g463
g2
Ntp586
Rp587
(dp588
g24
I00
sg32
I00
sg33
I00
sg74
I0
sbsg481
g0
(g155
g2
Ntp589
Rp590
(dp591
g24
I00
sg32
I00
sg33
I00
sg21
(lp592
sg25
g0
(g489
g2
Ntp593
Rp594
(dp595
g24
I00
sg32
I00
sg33
I00
sg149
g463
sg170
Nsbsbsbsg444
g0
(g26
g27
(lp596
g494
atp597
Rp598
(dp599
g24
I00
sg32
I00
sg33
I00
sg34
I1
sbsg445
g0
(g210
g2
Ntp600
Rp601
(dp602
g24
I00
sg32
I00
sg33
I00
sg74
I00
sbsg446
g0
(g70
g2
Ntp603
Rp604
(dp605
g24
I00
sg32
I00
sg33
I00
sg74
g504
sbsg447
g0
(g210
g2
Ntp606
Rp607
(dp608
g24
I00
sg32
I00
sg33
I00
sg74
I00
sbsg448
g0
(g210
g2
Ntp609
Rp610
(dp611
g24
I00
sg32
I00
sg33
I00
sg74
I01
sbsg449
g0
(g210
g2
Ntp612
Rp613
(dp614
g24
I00
sg32
I00
sg33
I00
sg74
I00
sbsg450
g0
(g210
g2
Ntp615
Rp616
(dp617
g24
I00
sg32
I00
sg33
I00
sg74
I01
sbsg451
g0
(g145
g2
Ntp618
Rp619
(dp620
g24
I00
sg32
I00
sg33
I00
sg149
g463
sg170
Nsbsg452
g0
(g26
g27
(lp621
tp622
Rp623
(dp624
g24
I00
sg32
I00
sg33
I00
sg34
I1
sbsg453
g0
(g26
g27
(lp625
tp626
Rp627
(dp628
g24
I00
sg32
I00
sg33
I00
sg34
I1
sbsg454
g0
(g26
g27
(lp629
tp630
Rp631
(dp632
g24
I00
sg32
I00
sg33
I00
sg34
I1
sbsg455
g0
(g26
g27
(lp633
tp634
Rp635
(dp636
g24
I00
sg32
I00
sg33
I00
sg34
I1
sbsg456
g0
(g26
g27
(lp637
tp638
Rp639
(dp640
g24
I00
sg32
I00
sg33
I00
sg34
I1
sbsg457
g0
(g540
g27
(lp641
tp642
Rp643
(dp644
g24
I00
sg32
I00
sg33
I00
sg34
I1
sbsg458
g0
(g26
g27
(lp645
tp646
Rp647
(dp648
g24
I00
sg32
I00
sg33
I00
sg34
I1
sbsg459
g0
(g210
g2
Ntp649
Rp650
(dp651
g24
I00
sg32
I00
sg33
I00
sg74
I00
sbsg460
g0
(g552
g2
Ntp652
Rp653
(dp654
g24
I00
sg32
I00
sg33
I00
sg149
g210
sg170
Nsbsg461
g0
(g552
g2
Ntp655
Rp656
(dp657
g24
I00
sg32
I00
sg33
I00
sg149
g70
sg170
Nsbsg462
g0
(g552
g2
Ntp658
Rp659
(dp660
g24
I00
sg32
I00
sg33
I00
sg149
g210
sg170
Nsbsg77
NsbsL140065695258752L
g0
(g155
g2
Ntp661
Rp662
(dp663
g24
I00
sg32
I00
sg33
I00
sg21
(lp664
g407
ag350
asg25
Nsg407
g0
(g145
g2
Ntp665
Rp666
(dp667
g24
I00
sg32
I00
sg33
I00
sg149
g163
sg170
Nsbsg350
g0
(g145
g2
Ntp668
Rp669
(dp670
g24
I00
sg32
I00
sg33
I00
sg149
g0
(g425
g2
Ntp671
Rp672
(dp673
g429
(g163
g155
tp674
sg431
Nsg432
Vallowed(cms.int32,cms.PSet)
p675
sbsg170
Nsbsg77
NsbsL140065695258896L
g404
sL140065695260144L
g413
sL140065695259424L
g436
sL140065696552320L
g46
sL140065696552512L
g87
ssV_Process__InExtendCall
p676
I00
sV_Process__partialschedules
p677
(dp678
sV_Process__isStrict
p679
I00
sV_Process__modifiers
p680
(tsV_Process__accelerators
p681
(dp682
sg402
g404
sg130
g133
sg411
g413
sVsource
p683
g17
sg20
g17
sg434
g436
sg382
g384
sg7
g46
sg84
g87
sb.