(dp0
VServer
p1
Vcmsweb.cern.ch
p2
sVPort
p3
V
p4
sVRequestName
p5
V240926_002725:wkwon_crab_MuonAnalysis_Run2023D1
p6
sVvoRole
p7
VNULL
p8
sVvoGroup
p9
g4
sVinstance
p10
Vprod
p11
sVOriginalConfig
p12
ccopy_reg
_reconstructor
p13
(cWMCore.Configuration
Configuration
p14
c__builtin__
object
p15
Ntp16
Rp17
(dp18
V_internal_sections
p19
(lp20
VGeneral
p21
aVJobType
p22
aVData
p23
aVSite
p24
aVUser
p25
aVDebug
p26
asg21
g13
(cWMCore.Configuration
ConfigSection
p27
g15
Ntp28
Rp29
(dp30
V_internal_documentation
p31
g4
sV_internal_name
p32
g21
sV_internal_settings
p33
c__builtin__
set
p34
((lp35
VrequestName
p36
aVworkArea
p37
atp38
Rp39
sV_internal_docstrings
p40
(dp41
sV_internal_children
p42
g34
((lp43
tp44
Rp45
sV_internal_parent_ref
p46
NsV_internal_skipChecks
p47
I00
sg36
VMuonAnalysis_Run2023D1
p48
sg37
Vcrab_projects
p49
sbsg22
g13
(g27
g15
Ntp50
Rp51
(dp52
g31
g4
sg32
g22
sg33
g34
((lp53
VmaxMemoryMB
p54
aVoutputFiles
p55
aVnumCores
p56
aVpluginName
p57
aVpsetName
p58
atp59
Rp60
sg40
(dp61
sg42
g34
((lp62
tp63
Rp64
sg46
Nsg47
I00
sg57
VAnalysis
p65
sg58
Vconf.py
p66
sg56
I1
sg54
I2000
sg55
(lp67
Vdata.root
p68
asbsg23
g13
(g27
g15
Ntp69
Rp70
(dp71
g31
g4
sg32
g23
sg33
g34
((lp72
VoutLFNDirBase
p73
aVinputDataset
p74
aVlumiMask
p75
aVsplitting
p76
aVinputDBS
p77
aVunitsPerJob
p78
aVpublication
p79
atp80
Rp81
sg40
(dp82
sg42
g34
((lp83
tp84
Rp85
sg46
Nsg47
I00
sg74
V/Muon1/Run2023D-PromptReco-v2/AOD
p86
sg77
Vglobal
p87
sg76
VFileBased
p88
sg78
I100
sg75
VCert_Collisions2023_366442_370790_Golden.json
p89
sg73
V/store/user/wkwon/AnalysisResults/
p90
sg79
I00
sbsg24
g13
(g27
g15
Ntp91
Rp92
(dp93
g31
g4
sg32
g24
sg33
g34
((lp94
Vblacklist
p95
aVstorageSite
p96
atp97
Rp98
sg40
(dp99
sg42
g34
((lp100
tp101
Rp102
sg46
Nsg47
I00
sg95
(lp103
VT2_US_MIT
p104
asg96
VT3_KR_KNU
p105
sbsg25
g13
(g27
g15
Ntp106
Rp107
(dp108
g31
g4
sg32
g25
sg33
g34
((lp109
tp110
Rp111
sg40
(dp112
sg42
g34
((lp113
tp114
Rp115
sg46
Nsg47
I00
sbsg26
g13
(g27
g15
Ntp116
Rp117
(dp118
g31
g4
sg32
g26
sg33
g34
((lp119
tp120
Rp121
sg40
(dp122
sg42
g34
((lp123
tp124
Rp125
sg46
Nsg47
I00
sbsbs.