(dp0
VServer
p1
Vcmsweb.cern.ch
p2
sVPort
p3
V
p4
sVRequestName
p5
V250119_023919:wkwon_crab_Run2022E-27Jun2023-v1
p6
sVvoRole
p7
VNULL
p8
sVvoGroup
p9
g4
sVinstance
p10
Vprod
p11
sVOriginalConfig
p12
ccopy_reg
_reconstructor
p13
(cWMCore.Configuration
Configuration
p14
c__builtin__
object
p15
Ntp16
Rp17
(dp18
V_internal_sections
p19
(lp20
VGeneral
p21
aVJobType
p22
aVData
p23
aVSite
p24
aVUser
p25
aVDebug
p26
asg21
g13
(cWMCore.Configuration
ConfigSection
p27
g15
Ntp28
Rp29
(dp30
V_internal_documentation
p31
g4
sV_internal_name
p32
g21
sV_internal_settings
p33
c__builtin__
set
p34
((lp35
VworkArea
p36
aVrequestName
p37
atp38
Rp39
sV_internal_docstrings
p40
(dp41
sV_internal_children
p42
g34
((lp43
tp44
Rp45
sV_internal_parent_ref
p46
NsV_internal_skipChecks
p47
I00
sg37
VRun2022E-27Jun2023-v1
p48
sg36
Vcrab_projects_2
p49
sbsg22
g13
(g27
g15
Ntp50
Rp51
(dp52
g31
g4
sg32
g22
sg33
g34
((lp53
VmaxMemoryMB
p54
aVpsetName
p55
aVpluginName
p56
aVnumCores
p57
aVoutputFiles
p58
atp59
Rp60
sg40
(dp61
sg42
g34
((lp62
tp63
Rp64
sg46
Nsg47
I00
sg56
VAnalysis
p65
sg55
Vconf.py
p66
sg57
I1
sg54
I2000
sg58
(lp67
Vskimmed_data.root
p68
asbsg23
g13
(g27
g15
Ntp69
Rp70
(dp71
g31
g4
sg32
g23
sg33
g34
((lp72
VoutLFNDirBase
p73
aVunitsPerJob
p74
aVpublication
p75
aVinputDBS
p76
aVlumiMask
p77
aVsplitting
p78
aVinputDataset
p79
atp80
Rp81
sg40
(dp82
sg42
g34
((lp83
tp84
Rp85
sg46
Nsg47
I00
sg79
V/Muon/Run2022E-27Jun2023-v1/AOD
p86
sg76
Vglobal
p87
sg78
VAutomatic
p88
sg74
I1800
sg77
VCert_Collisions2022_355100_362760_Golden.json
p89
sg73
V/store/user/wkwon/AnalysisResults/
p90
sg75
I00
sbsg24
g13
(g27
g15
Ntp91
Rp92
(dp93
g31
g4
sg32
g24
sg33
g34
((lp94
VstorageSite
p95
atp96
Rp97
sg40
(dp98
sg42
g34
((lp99
tp100
Rp101
sg46
Nsg47
I00
sg95
VT3_KR_KNU
p102
sbsg25
g13
(g27
g15
Ntp103
Rp104
(dp105
g31
g4
sg32
g25
sg33
g34
((lp106
tp107
Rp108
sg40
(dp109
sg42
g34
((lp110
tp111
Rp112
sg46
Nsg47
I00
sbsg26
g13
(g27
g15
Ntp113
Rp114
(dp115
g31
g4
sg32
g26
sg33
g34
((lp116
tp117
Rp118
sg40
(dp119
sg42
g34
((lp120
tp121
Rp122
sg46
Nsg47
I00
sbsbs.