ccopy_reg
_reconstructor
p0
(cFWCore.ParameterSet.Config
Process
p1
c__builtin__
object
p2
Ntp3
Rp4
(dp5
V_Process__name
p6
Vskim
p7
sV_Process__filters
p8
(dp9
g7
g0
(cFWCore.ParameterSet.Modules
EDFilter
p10
g2
Ntp11
Rp12
(dp13
V_TypedParameterizable__type
p14
g7
sV_Parameterizable__parameterNames
p15
(lp16
VtriggerResults
p17
aVhltPath
p18
asV_isFrozen
p19
I00
sV_Parameterizable__validator
p20
Nsg17
g0
(cFWCore.ParameterSet.Types
InputTag
p21
g2
Ntp22
Rp23
(dp24
g19
I00
sV_ParameterTypeBase__isTracked
p25
I01
sV_isModified
p26
I00
sV_InputTag__moduleLabel
p27
VTriggerResults
p28
sV_InputTag__productInstance
p29
V
p30
sV_InputTag__processName
p31
VHLT
p32
sbsg26
I00
sg18
g0
(cFWCore.ParameterSet.Types
string
p33
g2
Ntp34
Rp35
(dp36
g19
I00
sg25
I01
sg26
I00
sV_value
p37
VHLT_IsoMu24_v
p38
sbsV_filename
p39
V/u/user/wkwon/work/CMSSW_14_0_19_patch2/src/work/skim/conf.py
p40
sV_lineNumber
p41
I29
sV_Labelable__label
p42
g7
sbssV_Process__producers
p43
(dp44
sV_Process__switchproducers
p45
(dp46
sV_Process__source
p47
g0
(cFWCore.ParameterSet.Modules
Source
p48
g2
Ntp49
Rp50
(dp51
g14
VPoolSource
p52
sg15
(lp53
VfileNames
p54
asg19
I00
sg20
Nsg54
g0
(cFWCore.ParameterSet.Types
vstring
p55
c__builtin__
list
p56
(lp57
tp58
Rp59
(dp60
g19
I00
sg25
I00
sg26
I00
sV_nPerLine
p61
I1
sbsg26
I00
sg39
V/cvmfs/cms.cern.ch/slc7_amd64_gcc12/cms/cmssw-patch/CMSSW_14_0_19_patch2/src/FWCore/ParameterSet/python/Modules.py
p62
sg41
I195
sbsV_Process__looper
p63
NsV_Process__subProcesses
p64
(lp65
sV_Process__schedule
p66
NsV_Process__analyzers
p67
(dp68
sV_Process__outputmodules
p69
(dp70
Vout
p71
g0
(cFWCore.ParameterSet.Modules
OutputModule
p72
g2
Ntp73
Rp74
(dp75
g14
VPoolOutputModule
p76
sg15
(lp77
VfileName
p78
aVSelectEvents
p79
aVoutputCommands
p80
asg19
I00
sg20
Nsg78
g0
(g33
g2
Ntp81
Rp82
(dp83
g19
I00
sg25
I00
sg26
I00
sg37
Vfile:skimmed_data.root
p84
sbsg26
I00
sg79
g0
(cFWCore.ParameterSet.Types
PSet
p85
g2
Ntp86
Rp87
(dp88
g19
I00
sg25
I00
sg26
I00
sg15
(lp89
g79
asg20
Nsg79
g0
(g55
g56
(lp90
Vp
p91
atp92
Rp93
(dp94
g19
I00
sg25
I01
sg26
I00
sg61
I1
sbsbsg80
g0
(g55
g56
(lp95
Vdrop *
p96
aVkeep recoMuons_muons__*
p97
aVkeep recoMuons_muonMCMatch__*
p98
aVkeep edmEventAuxiliary_*_*_*
p99
atp100
Rp101
(dp102
g19
I00
sg25
I00
sg26
I00
sg61
I1
sbsg39
g40
sg41
I41
sg42
g71
sbssV_Process__paths
p103
g0
(cFWCore.ParameterSet.DictTypes
SortedKeysDict
p104
c__builtin__
dict
p105
(dp106
g91
g0
(cFWCore.ParameterSet.SequenceTypes
Path
p107
g2
Ntp108
Rp109
(dp110
g19
I00
sV_seq
p111
g0
(cFWCore.ParameterSet.SequenceTypes
_SequenceCollection
p112
g2
Ntp113
Rp114
(dp115
V_collection
p116
(lp117
g12
asbsg26
I00
sV_tasks
p118
g0
(cFWCore.ParameterSet.OrderedSet
OrderedSet
p119
g2
Ntp120
Rp121
(dp122
Vend
p123
(lp124
Nag124
ag124
asVmap
p125
(dp126
sbsg42
g91
sbstp127
Rp128
(dp129
Vlist
p130
(lp131
g91
asbsV_Process__endpaths
p132
g0
(g104
g105
(dp133
Ve
p134
g0
(cFWCore.ParameterSet.SequenceTypes
EndPath
p135
g2
Ntp136
Rp137
(dp138
g19
I00
sg111
g0
(g112
g2
Ntp139
Rp140
(dp141
g116
(lp142
g74
asbsg26
I00
sg118
g0
(g119
g2
Ntp143
Rp144
(dp145
g123
(lp146
Nag146
ag146
asg125
(dp147
sbsg42
g134
sbstp148
Rp149
(dp150
g130
(lp151
g134
asbsV_Process__finalpaths
p152
g0
(g104
g105
(dp153
tp154
Rp155
(dp156
g130
(lp157
sbsV_Process__sequences
p158
(dp159
sV_Process__tasks
p160
(dp161
sV_Process__conditionaltasks
p162
(dp163
sV_Process__services
p164
(dp165
VMessageLogger
p166
g0
(cFWCore.ParameterSet.Modules
Service
p167
g2
Ntp168
Rp169
(dp170
g14
g166
sg15
(lp171
VsuppressWarning
p172
aVsuppressFwkInfo
p173
aVsuppressInfo
p174
aVsuppressDebug
p175
aVdebugModules
p176
aVcout
p177
aVdefault
p178
aVcerr
p179
aVfiles
p180
asg19
I00
sg20
g0
(cFWCore.ParameterSet.Types
_OptionalParameter
p181
g2
Ntp182
Rp183
(dp184
g19
I00
sg25
I00
sg26
I00
sV_ProxyParameter__type
p185
g0
(cFWCore.ParameterSet.Types
_PSetTemplate
p186
g2
Ntp187
Rp188
(dp189
V_pset
p190
g0
(g85
g2
Ntp191
Rp192
(dp193
g19
I00
sg25
I01
sg26
I00
sg15
(lp194
VreportEvery
p195
aVlimit
p196
aVtimespan
p197
asg20
Nsg195
g0
(cFWCore.ParameterSet.Types
int32
p198
g2
Ntp199
Rp200
(dp201
g19
I00
sg25
I00
sg26
I00
sg37
I1
sbsg196
g0
(g181
g2
Ntp202
Rp203
(dp204
g19
I00
sg25
I00
sg26
I00
sg185
g198
sV_ProxyParameter__value
p205
Nsbsg197
g0
(g181
g2
Ntp206
Rp207
(dp208
g19
I00
sg25
I00
sg26
I00
sg185
g198
sg205
NsbsbsV_PSetTemplate__value
p209
Nsbsg205
Nsbsg172
g0
(g55
g56
(lp210
tp211
Rp212
(dp213
g19
I00
sg25
I00
sg26
I00
sg61
I1
sbsg26
I00
sg173
g0
(g55
g56
(lp214
tp215
Rp216
(dp217
g19
I00
sg25
I00
sg26
I00
sg61
I1
sbsg174
g0
(g55
g56
(lp218
tp219
Rp220
(dp221
g19
I00
sg25
I00
sg26
I00
sg61
I1
sbsg175
g0
(g55
g56
(lp222
tp223
Rp224
(dp225
g19
I00
sg25
I00
sg26
I00
sg61
I1
sbsg176
g0
(g55
g56
(lp226
tp227
Rp228
(dp229
g19
I00
sg25
I00
sg26
I00
sg61
I1
sbsg177
g0
(g85
g2
Ntp230
Rp231
(dp232
g19
I00
sg25
I00
sg26
I00
sg15
(lp233
VnoLineBreaks
p234
aVnoTimeStamps
p235
aVlineLength
p236
aVthreshold
p237
aVstatisticsThreshold
p238
aVenableStatistics
p239
aVresetStatistics
p240
aVenable
p241
asg20
g183
sg234
g0
(g181
g2
Ntp242
Rp243
(dp244
g19
I00
sg25
I00
sg26
I00
sg185
cFWCore.ParameterSet.Types
bool
p245
sg205
Nsbsg235
g0
(g181
g2
Ntp246
Rp247
(dp248
g19
I00
sg25
I00
sg26
I00
sg185
g245
sg205
Nsbsg236
g0
(g181
g2
Ntp249
Rp250
(dp251
g19
I00
sg25
I00
sg26
I00
sg185
g198
sg205
Nsbsg237
g0
(g181
g2
Ntp252
Rp253
(dp254
g19
I00
sg25
I00
sg26
I00
sg185
g33
sg205
Nsbsg238
g0
(g181
g2
Ntp255
Rp256
(dp257
g19
I00
sg25
I00
sg26
I00
sg185
g33
sg205
Nsbsg239
g0
(g245
g2
Ntp258
Rp259
(dp260
g19
I00
sg25
I00
sg26
I00
sg37
I00
sbsg240
g0
(g245
g2
Ntp261
Rp262
(dp263
g19
I00
sg25
I00
sg26
I00
sg37
I00
sbsg241
g0
(g245
g2
Ntp264
Rp265
(dp266
g19
I00
sg25
I00
sg26
I00
sg37
I00
sbsbsg178
g0
(g85
g2
Ntp267
Rp268
(dp269
g19
I00
sg25
I00
sg26
I00
sg15
(lp270
g195
ag196
ag197
ag234
ag235
ag236
ag237
ag238
asg20
g183
sg195
g0
(g198
g2
Ntp271
Rp272
(dp273
g19
I00
sg25
I00
sg26
I00
sg37
I1
sbsg196
g0
(g181
g2
Ntp274
Rp275
(dp276
g19
I00
sg25
I00
sg26
I00
sg185
g198
sg205
Nsbsg197
g0
(g181
g2
Ntp277
Rp278
(dp279
g19
I00
sg25
I00
sg26
I00
sg185
g198
sg205
Nsbsg234
g0
(g245
g2
Ntp280
Rp281
(dp282
g19
I00
sg25
I00
sg26
I00
sg37
I00
sbsg235
g0
(g245
g2
Ntp283
Rp284
(dp285
g19
I00
sg25
I00
sg26
I00
sg37
I00
sbsg236
g0
(g198
g2
Ntp286
Rp287
(dp288
g19
I00
sg25
I00
sg26
I00
sg37
I80
sbsg237
g0
(g33
g2
Ntp289
Rp290
(dp291
g19
I00
sg25
I00
sg26
I00
sg37
VINFO
p292
sbsg238
g0
(g33
g2
Ntp293
Rp294
(dp295
g19
I00
sg25
I00
sg26
I00
sg37
g292
sbsbsg179
g0
(g85
g2
Ntp296
Rp297
(dp298
g19
I00
sg25
I00
sg26
I00
sg15
(lp299
g234
ag235
ag236
ag237
ag238
ag241
ag239
ag240
ag292
aVFwkReport
p300
ag178
aVRoot_NoDictionary
p301
aVFwkSummary
p302
asg20
g183
sg234
g0
(g181
g2
Ntp303
Rp304
(dp305
g19
I00
sg25
I00
sg26
I00
sg185
g245
sg205
Nsbsg235
g0
(g245
g2
Ntp306
Rp307
(dp308
g19
I00
sg25
I00
sg26
I00
sg37
I00
sbsg236
g0
(g181
g2
Ntp309
Rp310
(dp311
g19
I00
sg25
I00
sg26
I00
sg185
g198
sg205
Nsbsg237
g0
(g33
g2
Ntp312
Rp313
(dp314
g19
I00
sg25
I00
sg26
I00
sg37
g292
sbsg238
g0
(g33
g2
Ntp315
Rp316
(dp317
g19
I00
sg25
I00
sg26
I00
sg37
VWARNING
p318
sbsg241
g0
(g245
g2
Ntp319
Rp320
(dp321
g19
I00
sg25
I00
sg26
I00
sg37
I01
sbsg239
g0
(g245
g2
Ntp322
Rp323
(dp324
g19
I00
sg25
I00
sg26
I00
sg37
I00
sbsg240
g0
(g245
g2
Ntp325
Rp326
(dp327
g19
I00
sg25
I00
sg26
I00
sg37
I00
sbsg292
g0
(g85
g2
Ntp328
Rp329
(dp330
g19
I00
sg25
I00
sg26
I00
sg15
(lp331
g196
asg20
Nsg196
g0
(g198
g2
Ntp332
Rp333
(dp334
g19
I00
sg25
I00
sg26
I00
sg37
I0
sbsbsg300
g0
(g85
g2
Ntp335
Rp336
(dp337
g19
I00
sg25
I00
sg26
I01
sg15
(lp338
g195
ag196
asg20
Nsg195
g0
(g198
g2
Ntp339
Rp340
(dp341
g19
I00
sg25
I00
sg26
I01
sg37
I10000
sbsg196
g0
(g198
g2
Ntp342
Rp343
(dp344
g19
I00
sg25
I00
sg26
I00
sg37
I10000000
sbsbsg178
g0
(g85
g2
Ntp345
Rp346
(dp347
g19
I00
sg25
I00
sg26
I00
sg15
(lp348
g196
asg20
Nsg196
g0
(g198
g2
Ntp349
Rp350
(dp351
g19
I00
sg25
I00
sg26
I00
sg37
I10000000
sbsbsg301
g0
(g85
g2
Ntp352
Rp353
(dp354
g19
I00
sg25
I00
sg26
I00
sg15
(lp355
g196
asg20
Nsg196
g0
(g198
g2
Ntp356
Rp357
(dp358
g19
I00
sg25
I00
sg26
I00
sg37
I0
sbsbsg302
g0
(g85
g2
Ntp359
Rp360
(dp361
g19
I00
sg25
I00
sg26
I00
sg15
(lp362
g195
ag196
asg20
Nsg195
g0
(g198
g2
Ntp363
Rp364
(dp365
g19
I00
sg25
I00
sg26
I00
sg37
I1
sbsg196
g0
(g198
g2
Ntp366
Rp367
(dp368
g19
I00
sg25
I00
sg26
I00
sg37
I10000000
sbsbsbsg180
g0
(g85
g2
Ntp369
Rp370
(dp371
g19
I00
sg25
I00
sg26
I00
sg15
(lp372
sg20
g0
(g181
g2
Ntp373
Rp374
(dp375
g19
I00
sg25
I00
sg26
I00
sg185
g0
(g186
g2
Ntp376
Rp377
(dp378
g190
g0
(g85
g2
Ntp379
Rp380
(dp381
g19
I00
sg25
I01
sg26
I00
sg15
(lp382
g234
ag235
ag236
ag237
ag238
ag239
ag240
aVfilename
p383
aVextension
p384
aVoutput
p385
asg20
g183
sg234
g0
(g181
g2
Ntp386
Rp387
(dp388
g19
I00
sg25
I00
sg26
I00
sg185
g245
sg205
Nsbsg235
g0
(g181
g2
Ntp389
Rp390
(dp391
g19
I00
sg25
I00
sg26
I00
sg185
g245
sg205
Nsbsg236
g0
(g181
g2
Ntp392
Rp393
(dp394
g19
I00
sg25
I00
sg26
I00
sg185
g198
sg205
Nsbsg237
g0
(g181
g2
Ntp395
Rp396
(dp397
g19
I00
sg25
I00
sg26
I00
sg185
g33
sg205
Nsbsg238
g0
(g181
g2
Ntp398
Rp399
(dp400
g19
I00
sg25
I00
sg26
I00
sg185
g33
sg205
Nsbsg239
g0
(g245
g2
Ntp401
Rp402
(dp403
g19
I00
sg25
I00
sg26
I00
sg37
I00
sbsg240
g0
(g245
g2
Ntp404
Rp405
(dp406
g19
I00
sg25
I00
sg26
I00
sg37
I00
sbsg383
g0
(g181
g2
Ntp407
Rp408
(dp409
g19
I00
sg25
I00
sg26
I00
sg185
g33
sg205
Nsbsg384
g0
(g181
g2
Ntp410
Rp411
(dp412
g19
I00
sg25
I00
sg26
I00
sg185
g33
sg205
Nsbsg385
g0
(g181
g2
Ntp413
Rp414
(dp415
g19
I00
sg25
I00
sg26
I00
sg185
g33
sg205
Nsbsbsg209
Nsbsg205
Nsbsbsg39
g62
sg41
I13
sV_inProcess
p416
I00
sbssV_Process__essources
p417
(dp418
sV_Process__esproducers
p419
(dp420
sV_Process__esprefers
p421
(dp422
sV_Process__aliases
p423
(dp424
sV_Process__psets
p425
(dp426
Voptions
p427
g0
(g85
g2
Ntp428
Rp429
(dp430
g19
I00
sg25
I00
sg26
I01
sg15
(lp431
VnumberOfThreads
p432
aVnumberOfStreams
p433
aVnumberOfConcurrentRuns
p434
aVnumberOfConcurrentLuminosityBlocks
p435
aVeventSetup
p436
aVaccelerators
p437
aVwantSummary
p438
aVfileMode
p439
aVforceEventSetupCacheClearOnNewRun
p440
aVthrowIfIllegalParameter
p441
aVprintDependencies
p442
aVdeleteNonConsumedUnscheduledModules
p443
aVsizeOfStackForThreadsInKB
p444
aVRethrow
p445
aVTryToContinue
p446
aVIgnoreCompletely
p447
aVmodulesToCallForTryToContinue
p448
aVcanDeleteEarly
p449
aVholdsReferencesToDeleteEarly
p450
aVmodulesToIgnoreForDeleteEarly
p451
aVdumpOptions
p452
aVallowUnscheduled
p453
aVemptyRunLumiMode
p454
aVmakeTriggerResults
p455
asg20
Nsg432
g0
(cFWCore.ParameterSet.Types
uint32
p456
g2
Ntp457
Rp458
(dp459
g19
I00
sg25
I00
sg26
I00
sg37
I1
sbsg433
g0
(g456
g2
Ntp460
Rp461
(dp462
g19
I00
sg25
I00
sg26
I00
sg37
I0
sbsg434
g0
(g456
g2
Ntp463
Rp464
(dp465
g19
I00
sg25
I00
sg26
I00
sg37
I1
sbsg435
g0
(g456
g2
Ntp466
Rp467
(dp468
g19
I00
sg25
I00
sg26
I00
sg37
I0
sbsg436
g0
(g85
g2
Ntp469
Rp470
(dp471
g19
I00
sg25
I00
sg26
I00
sg15
(lp472
VnumberOfConcurrentIOVs
p473
aVforceNumberOfConcurrentIOVs
p474
asg20
Nsg473
g0
(g456
g2
Ntp475
Rp476
(dp477
g19
I00
sg25
I00
sg26
I00
sg37
I0
sbsg474
g0
(g85
g2
Ntp478
Rp479
(dp480
g19
I00
sg25
I00
sg26
I00
sg15
(lp481
sg20
g0
(cFWCore.ParameterSet.Types
_RequiredParameter
p482
g2
Ntp483
Rp484
(dp485
g19
I00
sg25
I00
sg26
I00
sg185
g456
sg205
Nsbsbsbsg437
g0
(g55
g56
(lp486
V*
p487
atp488
Rp489
(dp490
g19
I00
sg25
I00
sg26
I00
sg61
I1
sbsg438
g0
(g245
g2
Ntp491
Rp492
(dp493
g19
I00
sg25
I00
sg26
I01
sg37
I01
sbsg439
g0
(g33
g2
Ntp494
Rp495
(dp496
g19
I00
sg25
I00
sg26
I00
sg37
VFULLMERGE
p497
sbsg440
g0
(g245
g2
Ntp498
Rp499
(dp500
g19
I00
sg25
I00
sg26
I00
sg37
I00
sbsg441
g0
(g245
g2
Ntp501
Rp502
(dp503
g19
I00
sg25
I00
sg26
I00
sg37
I01
sbsg442
g0
(g245
g2
Ntp504
Rp505
(dp506
g19
I00
sg25
I00
sg26
I00
sg37
I00
sbsg443
g0
(g245
g2
Ntp507
Rp508
(dp509
g19
I00
sg25
I00
sg26
I00
sg37
I01
sbsg444
g0
(g181
g2
Ntp510
Rp511
(dp512
g19
I00
sg25
I00
sg26
I00
sg185
g456
sg205
Nsbsg445
g0
(g55
g56
(lp513
tp514
Rp515
(dp516
g19
I00
sg25
I00
sg26
I00
sg61
I1
sbsg446
g0
(g55
g56
(lp517
tp518
Rp519
(dp520
g19
I00
sg25
I00
sg26
I00
sg61
I1
sbsg447
g0
(g55
g56
(lp521
tp522
Rp523
(dp524
g19
I00
sg25
I00
sg26
I00
sg61
I1
sbsg448
g0
(g55
g56
(lp525
tp526
Rp527
(dp528
g19
I00
sg25
I00
sg26
I00
sg61
I1
sbsg449
g0
(g55
g56
(lp529
tp530
Rp531
(dp532
g19
I00
sg25
I00
sg26
I00
sg61
I1
sbsg450
g0
(cFWCore.ParameterSet.Types
VPSet
p533
g56
(lp534
tp535
Rp536
(dp537
g19
I00
sg25
I00
sg26
I00
sg61
I1
sbsg451
g0
(g55
g56
(lp538
tp539
Rp540
(dp541
g19
I00
sg25
I00
sg26
I00
sg61
I1
sbsg452
g0
(g245
g2
Ntp542
Rp543
(dp544
g19
I00
sg25
I00
sg26
I00
sg37
I00
sbsg453
g0
(cFWCore.ParameterSet.Types
_ObsoleteParameter
p545
g2
Ntp546
Rp547
(dp548
g19
I00
sg25
I00
sg26
I00
sg185
g245
sg205
Nsbsg454
g0
(g545
g2
Ntp549
Rp550
(dp551
g19
I00
sg25
I00
sg26
I00
sg185
g33
sg205
Nsbsg455
g0
(g545
g2
Ntp552
Rp553
(dp554
g19
I00
sg25
I00
sg26
I00
sg185
g245
sg205
Nsbsg42
g427
sbsVmaxLuminosityBlocks
p555
g0
(g85
g2
Ntp556
Rp557
(dp558
g19
I00
sg25
I00
sg26
I00
sg15
(lp559
Vinput
p560
asg20
Nsg560
g0
(g198
g2
Ntp561
Rp562
(dp563
g19
I00
sg25
I00
sg26
I00
sg37
I-1
sbsg42
g555
sbsVmaxEvents
p564
g0
(g85
g2
Ntp565
Rp566
(dp567
g19
I00
sg25
I00
sg26
I01
sg15
(lp568
g560
ag385
asg20
Nsg560
g0
(g181
g2
Ntp569
Rp570
(dp571
g19
I00
sg25
I00
sg26
I00
sg185
g198
sg205
g0
(g198
g2
Ntp572
Rp573
(dp574
g19
I00
sg25
I00
sg26
I00
sg37
I-1
sbsbsg385
g0
(g181
g2
Ntp575
Rp576
(dp577
g19
I00
sg25
I00
sg26
I00
sg185
g0
(cFWCore.ParameterSet.Types
_AllowedParameterTypes
p578
g2
Ntp579
Rp580
(dp581
V_AllowedParameterTypes__types
p582
(g198
g85
tp583
sV_default
p584
NsV__name__
p585
Vallowed(cms.int32,cms.PSet)
p586
sbsg205
Nsbsg42
g564
sbssV_Process__vpsets
p587
(dp588
sV_cloneToObjectDict
p589
(dp590
L139834858349904L
g429
sL139834798365136L
g0
(g85
g2
Ntp591
Rp592
(dp593
g19
I00
sg25
I00
sg26
I00
sg15
(lp594
g560
ag385
asg20
Nsg560
g0
(g181
g2
Ntp595
Rp596
(dp597
g19
I00
sg25
I00
sg26
I00
sg185
g198
sg205
Nsbsg385
g0
(g181
g2
Ntp598
Rp599
(dp600
g19
I00
sg25
I00
sg26
I00
sg185
g0
(g578
g2
Ntp601
Rp602
(dp603
g582
(g198
g85
tp604
sg584
Nsg585
Vallowed(cms.int32,cms.PSet)
p605
sbsg205
Nsbsg42
NsbsL139834798365232L
g557
sL139834798364032L
g566
sL139834798363312L
g12
sL139834798363504L
g109
sL139834798362928L
g74
sL139834798362784L
g137
ssV_Process__InExtendCall
p606
I00
sV_Process__partialschedules
p607
(dp608
sV_Process__isStrict
p609
I00
sV_Process__modifiers
p610
(tsV_Process__accelerators
p611
(dp612
sg427
g429
sg555
g557
sg166
g169
sg564
g566
sVsource
p613
g50
sg52
g50
sg7
g12
sg91
g109
sg71
g74
sg134
g137
sb.