(dp0
VServer
p1
Vcmsweb.cern.ch
p2
sVPort
p3
V
p4
sVRequestName
p5
V240824_085513:wkwon_crab_MuonAnalysis_Run2022F
p6
sVvoRole
p7
VNULL
p8
sVvoGroup
p9
g4
sVinstance
p10
Vprod
p11
sVOriginalConfig
p12
ccopy_reg
_reconstructor
p13
(cWMCore.Configuration
Configuration
p14
c__builtin__
object
p15
Ntp16
Rp17
(dp18
V_internal_sections
p19
(lp20
VGeneral
p21
aVJobType
p22
aVData
p23
aVSite
p24
aVUser
p25
aVDebug
p26
asg21
g13
(cWMCore.Configuration
ConfigSection
p27
g15
Ntp28
Rp29
(dp30
V_internal_documentation
p31
g4
sV_internal_name
p32
g21
sV_internal_settings
p33
c__builtin__
set
p34
((lp35
VrequestName
p36
aVworkArea
p37
atp38
Rp39
sV_internal_docstrings
p40
(dp41
sV_internal_children
p42
g34
((lp43
tp44
Rp45
sV_internal_parent_ref
p46
NsV_internal_skipChecks
p47
I00
sg36
VMuonAnalysis_Run2022F
p48
sg37
Vcrab_projects
p49
sbsg22
g13
(g27
g15
Ntp50
Rp51
(dp52
g31
g4
sg32
g22
sg33
g34
((lp53
VpsetName
p54
aVpluginName
p55
atp56
Rp57
sg40
(dp58
sg42
g34
((lp59
tp60
Rp61
sg46
Nsg47
I00
sg55
VAnalysis
p62
sg54
Vconf.py
p63
sbsg23
g13
(g27
g15
Ntp64
Rp65
(dp66
g31
g4
sg32
g23
sg33
g34
((lp67
VoutLFNDirBase
p68
aVinputDataset
p69
aVinputDBS
p70
aVlumiMask
p71
aVpublication
p72
aVsplitting
p73
aVunitsPerJob
p74
atp75
Rp76
sg40
(dp77
sg42
g34
((lp78
tp79
Rp80
sg46
Nsg47
I00
sg69
V/Muon/Run2022F-PromptReco-v1/AOD
p81
sg70
Vglobal
p82
sg73
VLumiBased
p83
sg74
I100
sg71
VCert_Collisions2022_355100_362760_Golden.json
p84
sg68
V/store/user/wkwon/AnalysisResults/
p85
sg72
I00
sbsg24
g13
(g27
g15
Ntp86
Rp87
(dp88
g31
g4
sg32
g24
sg33
g34
((lp89
VstorageSite
p90
aVblacklist
p91
atp92
Rp93
sg40
(dp94
sg42
g34
((lp95
tp96
Rp97
sg46
Nsg47
I00
sg91
(lp98
VT2_US_MIT
p99
asg90
VT3_KR_KNU
p100
sbsg25
g13
(g27
g15
Ntp101
Rp102
(dp103
g31
g4
sg32
g25
sg33
g34
((lp104
tp105
Rp106
sg40
(dp107
sg42
g34
((lp108
tp109
Rp110
sg46
Nsg47
I00
sbsg26
g13
(g27
g15
Ntp111
Rp112
(dp113
g31
g4
sg32
g26
sg33
g34
((lp114
tp115
Rp116
sg40
(dp117
sg42
g34
((lp118
tp119
Rp120
sg46
Nsg47
I00
sbsbs.