(dp0
VServer
p1
Vcmsweb.cern.ch
p2
sVPort
p3
V
p4
sVRequestName
p5
V241009_070338:wkwon_crab_MuonAnalysis_DYJetsToLL_Run3Summer22DR
p6
sVvoRole
p7
VNULL
p8
sVvoGroup
p9
g4
sVinstance
p10
Vprod
p11
sVOriginalConfig
p12
ccopy_reg
_reconstructor
p13
(cWMCore.Configuration
Configuration
p14
c__builtin__
object
p15
Ntp16
Rp17
(dp18
V_internal_sections
p19
(lp20
VGeneral
p21
aVJobType
p22
aVData
p23
aVSite
p24
aVUser
p25
aVDebug
p26
asg21
g13
(cWMCore.Configuration
ConfigSection
p27
g15
Ntp28
Rp29
(dp30
V_internal_documentation
p31
g4
sV_internal_name
p32
g21
sV_internal_settings
p33
c__builtin__
set
p34
((lp35
VrequestName
p36
aVworkArea
p37
atp38
Rp39
sV_internal_docstrings
p40
(dp41
sV_internal_children
p42
g34
((lp43
tp44
Rp45
sV_internal_parent_ref
p46
NsV_internal_skipChecks
p47
I00
sg36
VMuonAnalysis_DYJetsToLL_Run3Summer22DR
p48
sg37
Vcrab_projects
p49
sbsg22
g13
(g27
g15
Ntp50
Rp51
(dp52
g31
g4
sg32
g22
sg33
g34
((lp53
VnumCores
p54
aVpluginName
p55
aVmaxMemoryMB
p56
aVpsetName
p57
aVoutputFiles
p58
atp59
Rp60
sg40
(dp61
sg42
g34
((lp62
tp63
Rp64
sg46
Nsg47
I00
sg55
VAnalysis
p65
sg57
Vconf.py
p66
sg54
I1
sg56
I2000
sg58
(lp67
Vmc.root
p68
asbsg23
g13
(g27
g15
Ntp69
Rp70
(dp71
g31
g4
sg32
g23
sg33
g34
((lp72
VunitsPerJob
p73
aVinputDBS
p74
aVoutLFNDirBase
p75
aVsplitting
p76
aVpublication
p77
aVinputDataset
p78
atp79
Rp80
sg40
(dp81
sg42
g34
((lp82
tp83
Rp84
sg46
Nsg47
I00
sg78
V/DYJetsToLL_M-50_TuneCP5_13p6TeV-madgraphMLM-pythia8/Run3Summer22DRPremix-124X_mcRun3_2022_realistic_v12-v2/AODSIM
p85
sg74
Vglobal
p86
sg76
VFileBased
p87
sg73
I100
sg75
V/store/user/wkwon/AnalysisResults/
p88
sg77
I00
sbsg24
g13
(g27
g15
Ntp89
Rp90
(dp91
g31
g4
sg32
g24
sg33
g34
((lp92
VstorageSite
p93
atp94
Rp95
sg40
(dp96
sg42
g34
((lp97
tp98
Rp99
sg46
Nsg47
I00
sg93
VT3_KR_KNU
p100
sbsg25
g13
(g27
g15
Ntp101
Rp102
(dp103
g31
g4
sg32
g25
sg33
g34
((lp104
tp105
Rp106
sg40
(dp107
sg42
g34
((lp108
tp109
Rp110
sg46
Nsg47
I00
sbsg26
g13
(g27
g15
Ntp111
Rp112
(dp113
g31
g4
sg32
g26
sg33
g34
((lp114
tp115
Rp116
sg40
(dp117
sg42
g34
((lp118
tp119
Rp120
sg46
Nsg47
I00
sbsbs.