ccopy_reg
_reconstructor
p0
(cFWCore.ParameterSet.Config
Process
p1
c__builtin__
object
p2
Ntp3
Rp4
(dp5
V_Process__name
p6
VAnalysis
p7
sV_Process__filters
p8
(dp9
sV_Process__producers
p10
(dp11
sV_Process__switchproducers
p12
(dp13
sV_Process__source
p14
g0
(cFWCore.ParameterSet.Modules
Source
p15
g2
Ntp16
Rp17
(dp18
V_TypedParameterizable__type
p19
VPoolSource
p20
sV_Parameterizable__parameterNames
p21
(lp22
VfileNames
p23
asV_isFrozen
p24
I00
sV_Parameterizable__validator
p25
Nsg23
g0
(cFWCore.ParameterSet.Types
vstring
p26
c__builtin__
list
p27
(lp28
tp29
Rp30
(dp31
g24
I00
sV_ParameterTypeBase__isTracked
p32
I00
sV_isModified
p33
I00
sV_nPerLine
p34
I1
sbsg33
I00
sV_filename
p35
V/cvmfs/cms.cern.ch/el9_amd64_gcc12/cms/cmssw/CMSSW_14_0_12/src/FWCore/ParameterSet/python/Modules.py
p36
sV_lineNumber
p37
I195
sbsV_Process__looper
p38
NsV_Process__subProcesses
p39
(lp40
sV_Process__schedule
p41
NsV_Process__analyzers
p42
(dp43
g7
g0
(cFWCore.ParameterSet.Modules
EDAnalyzer
p44
g2
Ntp45
Rp46
(dp47
g19
g7
sg21
(lp48
Vmuons
p49
aVtriggerResults
p50
aVhltPath
p51
asg24
I00
sg25
Nsg49
g0
(cFWCore.ParameterSet.Types
InputTag
p52
g2
Ntp53
Rp54
(dp55
g24
I00
sg32
I01
sg33
I00
sV_InputTag__moduleLabel
p56
g49
sV_InputTag__productInstance
p57
V
p58
sV_InputTag__processName
p59
g58
sbsg33
I00
sg50
g0
(g52
g2
Ntp60
Rp61
(dp62
g24
I00
sg32
I01
sg33
I00
sg56
VTriggerResults
p63
sg57
g58
sg59
VHLT
p64
sbsg51
g0
(cFWCore.ParameterSet.Types
string
p65
g2
Ntp66
Rp67
(dp68
g24
I00
sg32
I01
sg33
I00
sV_value
p69
VHLT_Mu50_v
p70
sbsg35
V/eos/home-w/wkwon/CMSSW_14_0_12/src/work/Analysis/conf.py
p71
sg37
I25
sV_Labelable__label
p72
g7
sbssV_Process__outputmodules
p73
(dp74
sV_Process__paths
p75
g0
(cFWCore.ParameterSet.DictTypes
SortedKeysDict
p76
c__builtin__
dict
p77
(dp78
Vp
p79
g0
(cFWCore.ParameterSet.SequenceTypes
Path
p80
g2
Ntp81
Rp82
(dp83
g24
I00
sV_seq
p84
g0
(cFWCore.ParameterSet.SequenceTypes
_SequenceCollection
p85
g2
Ntp86
Rp87
(dp88
V_collection
p89
(lp90
g46
asbsg33
I00
sV_tasks
p91
g0
(cFWCore.ParameterSet.OrderedSet
OrderedSet
p92
g2
Ntp93
Rp94
(dp95
Vend
p96
(lp97
Nag97
ag97
asVmap
p98
(dp99
sbsg72
g79
sbstp100
Rp101
(dp102
Vlist
p103
(lp104
g79
asbsV_Process__endpaths
p105
g0
(g76
g77
(dp106
tp107
Rp108
(dp109
g103
(lp110
sbsV_Process__finalpaths
p111
g0
(g76
g77
(dp112
tp113
Rp114
(dp115
g103
(lp116
sbsV_Process__sequences
p117
(dp118
sV_Process__tasks
p119
(dp120
sV_Process__conditionaltasks
p121
(dp122
sV_Process__services
p123
(dp124
VMessageLogger
p125
g0
(cFWCore.ParameterSet.Modules
Service
p126
g2
Ntp127
Rp128
(dp129
g19
g125
sg21
(lp130
VsuppressWarning
p131
aVsuppressFwkInfo
p132
aVsuppressInfo
p133
aVsuppressDebug
p134
aVdebugModules
p135
aVcout
p136
aVdefault
p137
aVcerr
p138
aVfiles
p139
asg24
I00
sg25
g0
(cFWCore.ParameterSet.Types
_OptionalParameter
p140
g2
Ntp141
Rp142
(dp143
g24
I00
sg32
I00
sg33
I00
sV_ProxyParameter__type
p144
g0
(cFWCore.ParameterSet.Types
_PSetTemplate
p145
g2
Ntp146
Rp147
(dp148
V_pset
p149
g0
(cFWCore.ParameterSet.Types
PSet
p150
g2
Ntp151
Rp152
(dp153
g24
I00
sg32
I01
sg33
I00
sg21
(lp154
VreportEvery
p155
aVlimit
p156
aVtimespan
p157
asg25
Nsg155
g0
(cFWCore.ParameterSet.Types
int32
p158
g2
Ntp159
Rp160
(dp161
g24
I00
sg32
I00
sg33
I00
sg69
I1
sbsg156
g0
(g140
g2
Ntp162
Rp163
(dp164
g24
I00
sg32
I00
sg33
I00
sg144
g158
sV_ProxyParameter__value
p165
Nsbsg157
g0
(g140
g2
Ntp166
Rp167
(dp168
g24
I00
sg32
I00
sg33
I00
sg144
g158
sg165
NsbsbsV_PSetTemplate__value
p169
Nsbsg165
Nsbsg131
g0
(g26
g27
(lp170
tp171
Rp172
(dp173
g24
I00
sg32
I00
sg33
I00
sg34
I1
sbsg33
I00
sg132
g0
(g26
g27
(lp174
tp175
Rp176
(dp177
g24
I00
sg32
I00
sg33
I00
sg34
I1
sbsg133
g0
(g26
g27
(lp178
tp179
Rp180
(dp181
g24
I00
sg32
I00
sg33
I00
sg34
I1
sbsg134
g0
(g26
g27
(lp182
tp183
Rp184
(dp185
g24
I00
sg32
I00
sg33
I00
sg34
I1
sbsg135
g0
(g26
g27
(lp186
tp187
Rp188
(dp189
g24
I00
sg32
I00
sg33
I00
sg34
I1
sbsg136
g0
(g150
g2
Ntp190
Rp191
(dp192
g24
I00
sg32
I00
sg33
I00
sg21
(lp193
VnoLineBreaks
p194
aVnoTimeStamps
p195
aVlineLength
p196
aVthreshold
p197
aVstatisticsThreshold
p198
aVenableStatistics
p199
aVresetStatistics
p200
aVenable
p201
asg25
g142
sg194
g0
(g140
g2
Ntp202
Rp203
(dp204
g24
I00
sg32
I00
sg33
I00
sg144
cFWCore.ParameterSet.Types
bool
p205
sg165
Nsbsg195
g0
(g140
g2
Ntp206
Rp207
(dp208
g24
I00
sg32
I00
sg33
I00
sg144
g205
sg165
Nsbsg196
g0
(g140
g2
Ntp209
Rp210
(dp211
g24
I00
sg32
I00
sg33
I00
sg144
g158
sg165
Nsbsg197
g0
(g140
g2
Ntp212
Rp213
(dp214
g24
I00
sg32
I00
sg33
I00
sg144
g65
sg165
Nsbsg198
g0
(g140
g2
Ntp215
Rp216
(dp217
g24
I00
sg32
I00
sg33
I00
sg144
g65
sg165
Nsbsg199
g0
(g205
g2
Ntp218
Rp219
(dp220
g24
I00
sg32
I00
sg33
I00
sg69
I00
sbsg200
g0
(g205
g2
Ntp221
Rp222
(dp223
g24
I00
sg32
I00
sg33
I00
sg69
I00
sbsg201
g0
(g205
g2
Ntp224
Rp225
(dp226
g24
I00
sg32
I00
sg33
I00
sg69
I00
sbsbsg137
g0
(g150
g2
Ntp227
Rp228
(dp229
g24
I00
sg32
I00
sg33
I00
sg21
(lp230
g155
ag156
ag157
ag194
ag195
ag196
ag197
ag198
asg25
g142
sg155
g0
(g158
g2
Ntp231
Rp232
(dp233
g24
I00
sg32
I00
sg33
I00
sg69
I1
sbsg156
g0
(g140
g2
Ntp234
Rp235
(dp236
g24
I00
sg32
I00
sg33
I00
sg144
g158
sg165
Nsbsg157
g0
(g140
g2
Ntp237
Rp238
(dp239
g24
I00
sg32
I00
sg33
I00
sg144
g158
sg165
Nsbsg194
g0
(g205
g2
Ntp240
Rp241
(dp242
g24
I00
sg32
I00
sg33
I00
sg69
I00
sbsg195
g0
(g205
g2
Ntp243
Rp244
(dp245
g24
I00
sg32
I00
sg33
I00
sg69
I00
sbsg196
g0
(g158
g2
Ntp246
Rp247
(dp248
g24
I00
sg32
I00
sg33
I00
sg69
I80
sbsg197
g0
(g65
g2
Ntp249
Rp250
(dp251
g24
I00
sg32
I00
sg33
I00
sg69
VINFO
p252
sbsg198
g0
(g65
g2
Ntp253
Rp254
(dp255
g24
I00
sg32
I00
sg33
I00
sg69
g252
sbsbsg138
g0
(g150
g2
Ntp256
Rp257
(dp258
g24
I00
sg32
I00
sg33
I00
sg21
(lp259
g194
ag195
ag196
ag197
ag198
ag201
ag199
ag200
ag252
aVFwkReport
p260
ag137
aVRoot_NoDictionary
p261
aVFwkSummary
p262
asg25
g142
sg194
g0
(g140
g2
Ntp263
Rp264
(dp265
g24
I00
sg32
I00
sg33
I00
sg144
g205
sg165
Nsbsg195
g0
(g205
g2
Ntp266
Rp267
(dp268
g24
I00
sg32
I00
sg33
I00
sg69
I00
sbsg196
g0
(g140
g2
Ntp269
Rp270
(dp271
g24
I00
sg32
I00
sg33
I00
sg144
g158
sg165
Nsbsg197
g0
(g65
g2
Ntp272
Rp273
(dp274
g24
I00
sg32
I00
sg33
I00
sg69
g252
sbsg198
g0
(g65
g2
Ntp275
Rp276
(dp277
g24
I00
sg32
I00
sg33
I00
sg69
VWARNING
p278
sbsg201
g0
(g205
g2
Ntp279
Rp280
(dp281
g24
I00
sg32
I00
sg33
I00
sg69
I01
sbsg199
g0
(g205
g2
Ntp282
Rp283
(dp284
g24
I00
sg32
I00
sg33
I00
sg69
I00
sbsg200
g0
(g205
g2
Ntp285
Rp286
(dp287
g24
I00
sg32
I00
sg33
I00
sg69
I00
sbsg252
g0
(g150
g2
Ntp288
Rp289
(dp290
g24
I00
sg32
I00
sg33
I00
sg21
(lp291
g156
asg25
Nsg156
g0
(g158
g2
Ntp292
Rp293
(dp294
g24
I00
sg32
I00
sg33
I00
sg69
I0
sbsbsg260
g0
(g150
g2
Ntp295
Rp296
(dp297
g24
I00
sg32
I00
sg33
I01
sg21
(lp298
g155
ag156
asg25
Nsg155
g0
(g158
g2
Ntp299
Rp300
(dp301
g24
I00
sg32
I00
sg33
I01
sg69
I10000
sbsg156
g0
(g158
g2
Ntp302
Rp303
(dp304
g24
I00
sg32
I00
sg33
I00
sg69
I10000000
sbsbsg137
g0
(g150
g2
Ntp305
Rp306
(dp307
g24
I00
sg32
I00
sg33
I00
sg21
(lp308
g156
asg25
Nsg156
g0
(g158
g2
Ntp309
Rp310
(dp311
g24
I00
sg32
I00
sg33
I00
sg69
I10000000
sbsbsg261
g0
(g150
g2
Ntp312
Rp313
(dp314
g24
I00
sg32
I00
sg33
I00
sg21
(lp315
g156
asg25
Nsg156
g0
(g158
g2
Ntp316
Rp317
(dp318
g24
I00
sg32
I00
sg33
I00
sg69
I0
sbsbsg262
g0
(g150
g2
Ntp319
Rp320
(dp321
g24
I00
sg32
I00
sg33
I00
sg21
(lp322
g155
ag156
asg25
Nsg155
g0
(g158
g2
Ntp323
Rp324
(dp325
g24
I00
sg32
I00
sg33
I00
sg69
I1
sbsg156
g0
(g158
g2
Ntp326
Rp327
(dp328
g24
I00
sg32
I00
sg33
I00
sg69
I10000000
sbsbsbsg139
g0
(g150
g2
Ntp329
Rp330
(dp331
g24
I00
sg32
I00
sg33
I00
sg21
(lp332
sg25
g0
(g140
g2
Ntp333
Rp334
(dp335
g24
I00
sg32
I00
sg33
I00
sg144
g0
(g145
g2
Ntp336
Rp337
(dp338
g149
g0
(g150
g2
Ntp339
Rp340
(dp341
g24
I00
sg32
I01
sg33
I00
sg21
(lp342
g194
ag195
ag196
ag197
ag198
ag199
ag200
aVfilename
p343
aVextension
p344
aVoutput
p345
asg25
g142
sg194
g0
(g140
g2
Ntp346
Rp347
(dp348
g24
I00
sg32
I00
sg33
I00
sg144
g205
sg165
Nsbsg195
g0
(g140
g2
Ntp349
Rp350
(dp351
g24
I00
sg32
I00
sg33
I00
sg144
g205
sg165
Nsbsg196
g0
(g140
g2
Ntp352
Rp353
(dp354
g24
I00
sg32
I00
sg33
I00
sg144
g158
sg165
Nsbsg197
g0
(g140
g2
Ntp355
Rp356
(dp357
g24
I00
sg32
I00
sg33
I00
sg144
g65
sg165
Nsbsg198
g0
(g140
g2
Ntp358
Rp359
(dp360
g24
I00
sg32
I00
sg33
I00
sg144
g65
sg165
Nsbsg199
g0
(g205
g2
Ntp361
Rp362
(dp363
g24
I00
sg32
I00
sg33
I00
sg69
I00
sbsg200
g0
(g205
g2
Ntp364
Rp365
(dp366
g24
I00
sg32
I00
sg33
I00
sg69
I00
sbsg343
g0
(g140
g2
Ntp367
Rp368
(dp369
g24
I00
sg32
I00
sg33
I00
sg144
g65
sg165
Nsbsg344
g0
(g140
g2
Ntp370
Rp371
(dp372
g24
I00
sg32
I00
sg33
I00
sg144
g65
sg165
Nsbsg345
g0
(g140
g2
Ntp373
Rp374
(dp375
g24
I00
sg32
I00
sg33
I00
sg144
g65
sg165
Nsbsbsg169
Nsbsg165
Nsbsbsg35
g36
sg37
I13
sV_inProcess
p376
I00
sbsVTFileService
p377
g0
(g126
g2
Ntp378
Rp379
(dp380
g19
g377
sg21
(lp381
VfileName
p382
asg24
I00
sg25
Nsg382
g0
(g65
g2
Ntp383
Rp384
(dp385
g24
I00
sg32
I01
sg33
I00
sg69
Vdata_D.root
p386
sbsg33
I00
sg35
g36
sg37
I13
sg376
I01
sbssV_Process__essources
p387
(dp388
sV_Process__esproducers
p389
(dp390
sV_Process__esprefers
p391
(dp392
sV_Process__aliases
p393
(dp394
sV_Process__psets
p395
(dp396
VmaxLuminosityBlocks
p397
g0
(g150
g2
Ntp398
Rp399
(dp400
g24
I00
sg32
I00
sg33
I00
sg21
(lp401
Vinput
p402
asg25
Nsg402
g0
(g158
g2
Ntp403
Rp404
(dp405
g24
I00
sg32
I00
sg33
I00
sg69
I-1
sbsg72
g397
sbsVmaxEvents
p406
g0
(g150
g2
Ntp407
Rp408
(dp409
g24
I00
sg32
I00
sg33
I01
sg21
(lp410
g402
ag345
asg25
Nsg402
g0
(g140
g2
Ntp411
Rp412
(dp413
g24
I00
sg32
I00
sg33
I00
sg144
g158
sg165
g0
(g158
g2
Ntp414
Rp415
(dp416
g24
I00
sg32
I00
sg33
I00
sg69
I-1
sbsbsg345
g0
(g140
g2
Ntp417
Rp418
(dp419
g24
I00
sg32
I00
sg33
I00
sg144
g0
(cFWCore.ParameterSet.Types
_AllowedParameterTypes
p420
g2
Ntp421
Rp422
(dp423
V_AllowedParameterTypes__types
p424
(g158
g150
tp425
sV_default
p426
NsV__name__
p427
Vallowed(cms.int32,cms.PSet)
p428
sbsg165
Nsbsg72
g406
sbsVoptions
p429
g0
(g150
g2
Ntp430
Rp431
(dp432
g24
I00
sg32
I00
sg33
I01
sg21
(lp433
VnumberOfThreads
p434
aVnumberOfStreams
p435
aVnumberOfConcurrentRuns
p436
aVnumberOfConcurrentLuminosityBlocks
p437
aVeventSetup
p438
aVaccelerators
p439
aVwantSummary
p440
aVfileMode
p441
aVforceEventSetupCacheClearOnNewRun
p442
aVthrowIfIllegalParameter
p443
aVprintDependencies
p444
aVdeleteNonConsumedUnscheduledModules
p445
aVsizeOfStackForThreadsInKB
p446
aVRethrow
p447
aVTryToContinue
p448
aVIgnoreCompletely
p449
aVmodulesToCallForTryToContinue
p450
aVcanDeleteEarly
p451
aVholdsReferencesToDeleteEarly
p452
aVmodulesToIgnoreForDeleteEarly
p453
aVdumpOptions
p454
aVallowUnscheduled
p455
aVemptyRunLumiMode
p456
aVmakeTriggerResults
p457
asg25
Nsg434
g0
(cFWCore.ParameterSet.Types
uint32
p458
g2
Ntp459
Rp460
(dp461
g24
I00
sg32
I00
sg33
I00
sg69
I1
sbsg435
g0
(g458
g2
Ntp462
Rp463
(dp464
g24
I00
sg32
I00
sg33
I00
sg69
I0
sbsg436
g0
(g458
g2
Ntp465
Rp466
(dp467
g24
I00
sg32
I00
sg33
I00
sg69
I1
sbsg437
g0
(g458
g2
Ntp468
Rp469
(dp470
g24
I00
sg32
I00
sg33
I00
sg69
I0
sbsg438
g0
(g150
g2
Ntp471
Rp472
(dp473
g24
I00
sg32
I00
sg33
I00
sg21
(lp474
VnumberOfConcurrentIOVs
p475
aVforceNumberOfConcurrentIOVs
p476
asg25
Nsg475
g0
(g458
g2
Ntp477
Rp478
(dp479
g24
I00
sg32
I00
sg33
I00
sg69
I0
sbsg476
g0
(g150
g2
Ntp480
Rp481
(dp482
g24
I00
sg32
I00
sg33
I00
sg21
(lp483
sg25
g0
(cFWCore.ParameterSet.Types
_RequiredParameter
p484
g2
Ntp485
Rp486
(dp487
g24
I00
sg32
I00
sg33
I00
sg144
g458
sg165
Nsbsbsbsg439
g0
(g26
g27
(lp488
V*
p489
atp490
Rp491
(dp492
g24
I00
sg32
I00
sg33
I00
sg34
I1
sbsg440
g0
(g205
g2
Ntp493
Rp494
(dp495
g24
I00
sg32
I00
sg33
I00
sg69
I00
sbsg441
g0
(g65
g2
Ntp496
Rp497
(dp498
g24
I00
sg32
I00
sg33
I00
sg69
VFULLMERGE
p499
sbsg442
g0
(g205
g2
Ntp500
Rp501
(dp502
g24
I00
sg32
I00
sg33
I00
sg69
I00
sbsg443
g0
(g205
g2
Ntp503
Rp504
(dp505
g24
I00
sg32
I00
sg33
I00
sg69
I01
sbsg444
g0
(g205
g2
Ntp506
Rp507
(dp508
g24
I00
sg32
I00
sg33
I00
sg69
I00
sbsg445
g0
(g205
g2
Ntp509
Rp510
(dp511
g24
I00
sg32
I00
sg33
I00
sg69
I01
sbsg446
g0
(g140
g2
Ntp512
Rp513
(dp514
g24
I00
sg32
I00
sg33
I00
sg144
g458
sg165
Nsbsg447
g0
(g26
g27
(lp515
tp516
Rp517
(dp518
g24
I00
sg32
I00
sg33
I00
sg34
I1
sbsg448
g0
(g26
g27
(lp519
tp520
Rp521
(dp522
g24
I00
sg32
I00
sg33
I00
sg34
I1
sbsg449
g0
(g26
g27
(lp523
tp524
Rp525
(dp526
g24
I00
sg32
I00
sg33
I00
sg34
I1
sbsg450
g0
(g26
g27
(lp527
tp528
Rp529
(dp530
g24
I00
sg32
I00
sg33
I00
sg34
I1
sbsg451
g0
(g26
g27
(lp531
tp532
Rp533
(dp534
g24
I00
sg32
I00
sg33
I00
sg34
I1
sbsg452
g0
(cFWCore.ParameterSet.Types
VPSet
p535
g27
(lp536
tp537
Rp538
(dp539
g24
I00
sg32
I00
sg33
I00
sg34
I1
sbsg453
g0
(g26
g27
(lp540
tp541
Rp542
(dp543
g24
I00
sg32
I00
sg33
I00
sg34
I1
sbsg454
g0
(g205
g2
Ntp544
Rp545
(dp546
g24
I00
sg32
I00
sg33
I00
sg69
I00
sbsg455
g0
(cFWCore.ParameterSet.Types
_ObsoleteParameter
p547
g2
Ntp548
Rp549
(dp550
g24
I00
sg32
I00
sg33
I00
sg144
g205
sg165
Nsbsg456
g0
(g547
g2
Ntp551
Rp552
(dp553
g24
I00
sg32
I00
sg33
I00
sg144
g65
sg165
Nsbsg457
g0
(g547
g2
Ntp554
Rp555
(dp556
g24
I00
sg32
I00
sg33
I00
sg144
g205
sg165
Nsbsg72
g429
sbssV_Process__vpsets
p557
(dp558
sV_cloneToObjectDict
p559
(dp560
L140527853904080L
g0
(g150
g2
Ntp561
Rp562
(dp563
g24
I00
sg32
I00
sg33
I00
sg21
(lp564
g434
ag435
ag436
ag437
ag438
ag439
ag440
ag441
ag442
ag443
ag444
ag445
ag446
ag447
ag448
ag449
ag450
ag451
ag452
ag453
ag454
ag455
ag456
ag457
asg25
Nsg434
g0
(g458
g2
Ntp565
Rp566
(dp567
g24
I00
sg32
I00
sg33
I00
sg69
I1
sbsg435
g0
(g458
g2
Ntp568
Rp569
(dp570
g24
I00
sg32
I00
sg33
I00
sg69
I0
sbsg436
g0
(g458
g2
Ntp571
Rp572
(dp573
g24
I00
sg32
I00
sg33
I00
sg69
I1
sbsg437
g0
(g458
g2
Ntp574
Rp575
(dp576
g24
I00
sg32
I00
sg33
I00
sg69
I0
sbsg438
g0
(g150
g2
Ntp577
Rp578
(dp579
g24
I00
sg32
I00
sg33
I00
sg21
(lp580
g475
ag476
asg25
Nsg475
g0
(g458
g2
Ntp581
Rp582
(dp583
g24
I00
sg32
I00
sg33
I00
sg69
I0
sbsg476
g0
(g150
g2
Ntp584
Rp585
(dp586
g24
I00
sg32
I00
sg33
I00
sg21
(lp587
sg25
g0
(g484
g2
Ntp588
Rp589
(dp590
g24
I00
sg32
I00
sg33
I00
sg144
g458
sg165
Nsbsbsbsg439
g0
(g26
g27
(lp591
g489
atp592
Rp593
(dp594
g24
I00
sg32
I00
sg33
I00
sg34
I1
sbsg440
g0
(g205
g2
Ntp595
Rp596
(dp597
g24
I00
sg32
I00
sg33
I00
sg69
I00
sbsg441
g0
(g65
g2
Ntp598
Rp599
(dp600
g24
I00
sg32
I00
sg33
I00
sg69
g499
sbsg442
g0
(g205
g2
Ntp601
Rp602
(dp603
g24
I00
sg32
I00
sg33
I00
sg69
I00
sbsg443
g0
(g205
g2
Ntp604
Rp605
(dp606
g24
I00
sg32
I00
sg33
I00
sg69
I01
sbsg444
g0
(g205
g2
Ntp607
Rp608
(dp609
g24
I00
sg32
I00
sg33
I00
sg69
I00
sbsg445
g0
(g205
g2
Ntp610
Rp611
(dp612
g24
I00
sg32
I00
sg33
I00
sg69
I01
sbsg446
g0
(g140
g2
Ntp613
Rp614
(dp615
g24
I00
sg32
I00
sg33
I00
sg144
g458
sg165
Nsbsg447
g0
(g26
g27
(lp616
tp617
Rp618
(dp619
g24
I00
sg32
I00
sg33
I00
sg34
I1
sbsg448
g0
(g26
g27
(lp620
tp621
Rp622
(dp623
g24
I00
sg32
I00
sg33
I00
sg34
I1
sbsg449
g0
(g26
g27
(lp624
tp625
Rp626
(dp627
g24
I00
sg32
I00
sg33
I00
sg34
I1
sbsg450
g0
(g26
g27
(lp628
tp629
Rp630
(dp631
g24
I00
sg32
I00
sg33
I00
sg34
I1
sbsg451
g0
(g26
g27
(lp632
tp633
Rp634
(dp635
g24
I00
sg32
I00
sg33
I00
sg34
I1
sbsg452
g0
(g535
g27
(lp636
tp637
Rp638
(dp639
g24
I00
sg32
I00
sg33
I00
sg34
I1
sbsg453
g0
(g26
g27
(lp640
tp641
Rp642
(dp643
g24
I00
sg32
I00
sg33
I00
sg34
I1
sbsg454
g0
(g205
g2
Ntp644
Rp645
(dp646
g24
I00
sg32
I00
sg33
I00
sg69
I00
sbsg455
g0
(g547
g2
Ntp647
Rp648
(dp649
g24
I00
sg32
I00
sg33
I00
sg144
g205
sg165
Nsbsg456
g0
(g547
g2
Ntp650
Rp651
(dp652
g24
I00
sg32
I00
sg33
I00
sg144
g65
sg165
Nsbsg457
g0
(g547
g2
Ntp653
Rp654
(dp655
g24
I00
sg32
I00
sg33
I00
sg144
g205
sg165
Nsbsg72
NsbsL140527852478528L
g0
(g150
g2
Ntp656
Rp657
(dp658
g24
I00
sg32
I00
sg33
I00
sg21
(lp659
g402
ag345
asg25
Nsg402
g0
(g140
g2
Ntp660
Rp661
(dp662
g24
I00
sg32
I00
sg33
I00
sg144
g158
sg165
Nsbsg345
g0
(g140
g2
Ntp663
Rp664
(dp665
g24
I00
sg32
I00
sg33
I00
sg144
g0
(g420
g2
Ntp666
Rp667
(dp668
g424
(g158
g150
tp669
sg426
Nsg427
Vallowed(cms.int32,cms.PSet)
p670
sbsg165
Nsbsg72
NsbsL140527852478624L
g399
sL140527852482320L
g408
sL140527852480928L
g431
sL140527852480688L
g46
sL140527853215168L
g82
ssV_Process__InExtendCall
p671
I00
sV_Process__partialschedules
p672
(dp673
sV_Process__isStrict
p674
I00
sV_Process__modifiers
p675
(tsV_Process__accelerators
p676
(dp677
sg397
g399
sg125
g128
sg406
g408
sVsource
p678
g17
sg20
g17
sg429
g431
sg377
g379
sg7
g46
sg79
g82
sb.