(dp0
VServer
p1
Vcmsweb.cern.ch
p2
sVPort
p3
V
p4
sVRequestName
p5
V240821_061014:wkwon_crab_MuonAnalysis_Run2022E
p6
sVvoRole
p7
VNULL
p8
sVvoGroup
p9
g4
sVinstance
p10
Vprod
p11
sVOriginalConfig
p12
ccopy_reg
_reconstructor
p13
(cWMCore.Configuration
Configuration
p14
c__builtin__
object
p15
Ntp16
Rp17
(dp18
V_internal_sections
p19
(lp20
VGeneral
p21
aVJobType
p22
aVData
p23
aVSite
p24
aVUser
p25
aVDebug
p26
asg21
g13
(cWMCore.Configuration
ConfigSection
p27
g15
Ntp28
Rp29
(dp30
V_internal_documentation
p31
g4
sV_internal_name
p32
g21
sV_internal_settings
p33
c__builtin__
set
p34
((lp35
VworkArea
p36
aVrequestName
p37
atp38
Rp39
sV_internal_docstrings
p40
(dp41
sV_internal_children
p42
g34
((lp43
tp44
Rp45
sV_internal_parent_ref
p46
NsV_internal_skipChecks
p47
I00
sg37
VMuonAnalysis_Run2022E
p48
sg36
Vcrab_projects
p49
sbsg22
g13
(g27
g15
Ntp50
Rp51
(dp52
g31
g4
sg32
g22
sg33
g34
((lp53
VpluginName
p54
aVpsetName
p55
atp56
Rp57
sg40
(dp58
sg42
g34
((lp59
tp60
Rp61
sg46
Nsg47
I00
sg54
VAnalysis
p62
sg55
Vconf.py
p63
sbsg23
g13
(g27
g15
Ntp64
Rp65
(dp66
g31
g4
sg32
g23
sg33
g34
((lp67
Vpublication
p68
aVlumiMask
p69
aVunitsPerJob
p70
aVoutLFNDirBase
p71
aVsplitting
p72
aVinputDBS
p73
aVinputDataset
p74
atp75
Rp76
sg40
(dp77
sg42
g34
((lp78
tp79
Rp80
sg46
Nsg47
I00
sg74
V/Muon/Run2022E-27Jun2023-v1/AOD
p81
sg73
Vglobal
p82
sg72
VLumiBased
p83
sg70
I100
sg69
VCert_Collisions2022_355100_362760_Golden.json
p84
sg71
V/store/user/wkwon/AnalysisResults/
p85
sg68
I00
sbsg24
g13
(g27
g15
Ntp86
Rp87
(dp88
g31
g4
sg32
g24
sg33
g34
((lp89
VstorageSite
p90
atp91
Rp92
sg40
(dp93
sg42
g34
((lp94
tp95
Rp96
sg46
Nsg47
I00
sg90
VT3_KR_KNU
p97
sbsg25
g13
(g27
g15
Ntp98
Rp99
(dp100
g31
g4
sg32
g25
sg33
g34
((lp101
tp102
Rp103
sg40
(dp104
sg42
g34
((lp105
tp106
Rp107
sg46
Nsg47
I00
sbsg26
g13
(g27
g15
Ntp108
Rp109
(dp110
g31
g4
sg32
g26
sg33
g34
((lp111
tp112
Rp113
sg40
(dp114
sg42
g34
((lp115
tp116
Rp117
sg46
Nsg47
I00
sbsbs.